
;CodeVisionAVR C Compiler V3.12 Advanced
;(C) Copyright 1998-2014 Pavel Haiduc, HP InfoTech s.r.l.
;http://www.hpinfotech.com

;Build configuration    : Release
;Chip type              : ATmega16
;Program type           : Application
;Clock frequency        : 8.000000 MHz
;Memory model           : Small
;Optimize for           : Size
;(s)printf features     : float, width, precision
;(s)scanf features      : int, width
;External RAM size      : 0
;Data Stack size        : 256 byte(s)
;Heap size              : 0 byte(s)
;Promote 'char' to 'int': Yes
;'char' is unsigned     : Yes
;8 bit enums            : Yes
;Global 'const' stored in FLASH: No
;Enhanced function parameter passing: Yes
;Enhanced core instructions: On
;Automatic register allocation for global variables: On
;Smart register allocation: On

	#define _MODEL_SMALL_

	#pragma AVRPART ADMIN PART_NAME ATmega16
	#pragma AVRPART MEMORY PROG_FLASH 16384
	#pragma AVRPART MEMORY EEPROM 512
	#pragma AVRPART MEMORY INT_SRAM SIZE 1024
	#pragma AVRPART MEMORY INT_SRAM START_ADDR 0x60

	#define CALL_SUPPORTED 1

	.LISTMAC
	.EQU UDRE=0x5
	.EQU RXC=0x7
	.EQU USR=0xB
	.EQU UDR=0xC
	.EQU SPSR=0xE
	.EQU SPDR=0xF
	.EQU EERE=0x0
	.EQU EEWE=0x1
	.EQU EEMWE=0x2
	.EQU EECR=0x1C
	.EQU EEDR=0x1D
	.EQU EEARL=0x1E
	.EQU EEARH=0x1F
	.EQU WDTCR=0x21
	.EQU MCUCR=0x35
	.EQU GICR=0x3B
	.EQU SPL=0x3D
	.EQU SPH=0x3E
	.EQU SREG=0x3F

	.DEF R0X0=R0
	.DEF R0X1=R1
	.DEF R0X2=R2
	.DEF R0X3=R3
	.DEF R0X4=R4
	.DEF R0X5=R5
	.DEF R0X6=R6
	.DEF R0X7=R7
	.DEF R0X8=R8
	.DEF R0X9=R9
	.DEF R0XA=R10
	.DEF R0XB=R11
	.DEF R0XC=R12
	.DEF R0XD=R13
	.DEF R0XE=R14
	.DEF R0XF=R15
	.DEF R0X10=R16
	.DEF R0X11=R17
	.DEF R0X12=R18
	.DEF R0X13=R19
	.DEF R0X14=R20
	.DEF R0X15=R21
	.DEF R0X16=R22
	.DEF R0X17=R23
	.DEF R0X18=R24
	.DEF R0X19=R25
	.DEF R0X1A=R26
	.DEF R0X1B=R27
	.DEF R0X1C=R28
	.DEF R0X1D=R29
	.DEF R0X1E=R30
	.DEF R0X1F=R31

	.EQU __SRAM_START=0x0060
	.EQU __SRAM_END=0x045F
	.EQU __DSTACK_SIZE=0x0100
	.EQU __HEAP_SIZE=0x0000
	.EQU __CLEAR_SRAM_SIZE=__SRAM_END-__SRAM_START+1

	.MACRO __CPD1N
	CPI  R30,LOW(@0)
	LDI  R26,HIGH(@0)
	CPC  R31,R26
	LDI  R26,BYTE3(@0)
	CPC  R22,R26
	LDI  R26,BYTE4(@0)
	CPC  R23,R26
	.ENDM

	.MACRO __CPD2N
	CPI  R26,LOW(@0)
	LDI  R30,HIGH(@0)
	CPC  R27,R30
	LDI  R30,BYTE3(@0)
	CPC  R24,R30
	LDI  R30,BYTE4(@0)
	CPC  R25,R30
	.ENDM

	.MACRO __CPWRR
	CP   R@0,R@2
	CPC  R@1,R@3
	.ENDM

	.MACRO __CPWRN
	CPI  R@0,LOW(@2)
	LDI  R30,HIGH(@2)
	CPC  R@1,R30
	.ENDM

	.MACRO __ADDB1MN
	SUBI R30,LOW(-@0-(@1))
	.ENDM

	.MACRO __ADDB2MN
	SUBI R26,LOW(-@0-(@1))
	.ENDM

	.MACRO __ADDW1MN
	SUBI R30,LOW(-@0-(@1))
	SBCI R31,HIGH(-@0-(@1))
	.ENDM

	.MACRO __ADDW2MN
	SUBI R26,LOW(-@0-(@1))
	SBCI R27,HIGH(-@0-(@1))
	.ENDM

	.MACRO __ADDW1FN
	SUBI R30,LOW(-2*@0-(@1))
	SBCI R31,HIGH(-2*@0-(@1))
	.ENDM

	.MACRO __ADDD1FN
	SUBI R30,LOW(-2*@0-(@1))
	SBCI R31,HIGH(-2*@0-(@1))
	SBCI R22,BYTE3(-2*@0-(@1))
	.ENDM

	.MACRO __ADDD1N
	SUBI R30,LOW(-@0)
	SBCI R31,HIGH(-@0)
	SBCI R22,BYTE3(-@0)
	SBCI R23,BYTE4(-@0)
	.ENDM

	.MACRO __ADDD2N
	SUBI R26,LOW(-@0)
	SBCI R27,HIGH(-@0)
	SBCI R24,BYTE3(-@0)
	SBCI R25,BYTE4(-@0)
	.ENDM

	.MACRO __SUBD1N
	SUBI R30,LOW(@0)
	SBCI R31,HIGH(@0)
	SBCI R22,BYTE3(@0)
	SBCI R23,BYTE4(@0)
	.ENDM

	.MACRO __SUBD2N
	SUBI R26,LOW(@0)
	SBCI R27,HIGH(@0)
	SBCI R24,BYTE3(@0)
	SBCI R25,BYTE4(@0)
	.ENDM

	.MACRO __ANDBMNN
	LDS  R30,@0+(@1)
	ANDI R30,LOW(@2)
	STS  @0+(@1),R30
	.ENDM

	.MACRO __ANDWMNN
	LDS  R30,@0+(@1)
	ANDI R30,LOW(@2)
	STS  @0+(@1),R30
	LDS  R30,@0+(@1)+1
	ANDI R30,HIGH(@2)
	STS  @0+(@1)+1,R30
	.ENDM

	.MACRO __ANDD1N
	ANDI R30,LOW(@0)
	ANDI R31,HIGH(@0)
	ANDI R22,BYTE3(@0)
	ANDI R23,BYTE4(@0)
	.ENDM

	.MACRO __ANDD2N
	ANDI R26,LOW(@0)
	ANDI R27,HIGH(@0)
	ANDI R24,BYTE3(@0)
	ANDI R25,BYTE4(@0)
	.ENDM

	.MACRO __ORBMNN
	LDS  R30,@0+(@1)
	ORI  R30,LOW(@2)
	STS  @0+(@1),R30
	.ENDM

	.MACRO __ORWMNN
	LDS  R30,@0+(@1)
	ORI  R30,LOW(@2)
	STS  @0+(@1),R30
	LDS  R30,@0+(@1)+1
	ORI  R30,HIGH(@2)
	STS  @0+(@1)+1,R30
	.ENDM

	.MACRO __ORD1N
	ORI  R30,LOW(@0)
	ORI  R31,HIGH(@0)
	ORI  R22,BYTE3(@0)
	ORI  R23,BYTE4(@0)
	.ENDM

	.MACRO __ORD2N
	ORI  R26,LOW(@0)
	ORI  R27,HIGH(@0)
	ORI  R24,BYTE3(@0)
	ORI  R25,BYTE4(@0)
	.ENDM

	.MACRO __DELAY_USB
	LDI  R24,LOW(@0)
__DELAY_USB_LOOP:
	DEC  R24
	BRNE __DELAY_USB_LOOP
	.ENDM

	.MACRO __DELAY_USW
	LDI  R24,LOW(@0)
	LDI  R25,HIGH(@0)
__DELAY_USW_LOOP:
	SBIW R24,1
	BRNE __DELAY_USW_LOOP
	.ENDM

	.MACRO __GETD1S
	LDD  R30,Y+@0
	LDD  R31,Y+@0+1
	LDD  R22,Y+@0+2
	LDD  R23,Y+@0+3
	.ENDM

	.MACRO __GETD2S
	LDD  R26,Y+@0
	LDD  R27,Y+@0+1
	LDD  R24,Y+@0+2
	LDD  R25,Y+@0+3
	.ENDM

	.MACRO __PUTD1S
	STD  Y+@0,R30
	STD  Y+@0+1,R31
	STD  Y+@0+2,R22
	STD  Y+@0+3,R23
	.ENDM

	.MACRO __PUTD2S
	STD  Y+@0,R26
	STD  Y+@0+1,R27
	STD  Y+@0+2,R24
	STD  Y+@0+3,R25
	.ENDM

	.MACRO __PUTDZ2
	STD  Z+@0,R26
	STD  Z+@0+1,R27
	STD  Z+@0+2,R24
	STD  Z+@0+3,R25
	.ENDM

	.MACRO __CLRD1S
	STD  Y+@0,R30
	STD  Y+@0+1,R30
	STD  Y+@0+2,R30
	STD  Y+@0+3,R30
	.ENDM

	.MACRO __POINTB1MN
	LDI  R30,LOW(@0+(@1))
	.ENDM

	.MACRO __POINTW1MN
	LDI  R30,LOW(@0+(@1))
	LDI  R31,HIGH(@0+(@1))
	.ENDM

	.MACRO __POINTD1M
	LDI  R30,LOW(@0)
	LDI  R31,HIGH(@0)
	LDI  R22,BYTE3(@0)
	LDI  R23,BYTE4(@0)
	.ENDM

	.MACRO __POINTW1FN
	LDI  R30,LOW(2*@0+(@1))
	LDI  R31,HIGH(2*@0+(@1))
	.ENDM

	.MACRO __POINTD1FN
	LDI  R30,LOW(2*@0+(@1))
	LDI  R31,HIGH(2*@0+(@1))
	LDI  R22,BYTE3(2*@0+(@1))
	LDI  R23,BYTE4(2*@0+(@1))
	.ENDM

	.MACRO __POINTB2MN
	LDI  R26,LOW(@0+(@1))
	.ENDM

	.MACRO __POINTW2MN
	LDI  R26,LOW(@0+(@1))
	LDI  R27,HIGH(@0+(@1))
	.ENDM

	.MACRO __POINTW2FN
	LDI  R26,LOW(2*@0+(@1))
	LDI  R27,HIGH(2*@0+(@1))
	.ENDM

	.MACRO __POINTD2FN
	LDI  R26,LOW(2*@0+(@1))
	LDI  R27,HIGH(2*@0+(@1))
	LDI  R24,BYTE3(2*@0+(@1))
	LDI  R25,BYTE4(2*@0+(@1))
	.ENDM

	.MACRO __POINTBRM
	LDI  R@0,LOW(@1)
	.ENDM

	.MACRO __POINTWRM
	LDI  R@0,LOW(@2)
	LDI  R@1,HIGH(@2)
	.ENDM

	.MACRO __POINTBRMN
	LDI  R@0,LOW(@1+(@2))
	.ENDM

	.MACRO __POINTWRMN
	LDI  R@0,LOW(@2+(@3))
	LDI  R@1,HIGH(@2+(@3))
	.ENDM

	.MACRO __POINTWRFN
	LDI  R@0,LOW(@2*2+(@3))
	LDI  R@1,HIGH(@2*2+(@3))
	.ENDM

	.MACRO __GETD1N
	LDI  R30,LOW(@0)
	LDI  R31,HIGH(@0)
	LDI  R22,BYTE3(@0)
	LDI  R23,BYTE4(@0)
	.ENDM

	.MACRO __GETD2N
	LDI  R26,LOW(@0)
	LDI  R27,HIGH(@0)
	LDI  R24,BYTE3(@0)
	LDI  R25,BYTE4(@0)
	.ENDM

	.MACRO __GETB1MN
	LDS  R30,@0+(@1)
	.ENDM

	.MACRO __GETB1HMN
	LDS  R31,@0+(@1)
	.ENDM

	.MACRO __GETW1MN
	LDS  R30,@0+(@1)
	LDS  R31,@0+(@1)+1
	.ENDM

	.MACRO __GETD1MN
	LDS  R30,@0+(@1)
	LDS  R31,@0+(@1)+1
	LDS  R22,@0+(@1)+2
	LDS  R23,@0+(@1)+3
	.ENDM

	.MACRO __GETBRMN
	LDS  R@0,@1+(@2)
	.ENDM

	.MACRO __GETWRMN
	LDS  R@0,@2+(@3)
	LDS  R@1,@2+(@3)+1
	.ENDM

	.MACRO __GETWRZ
	LDD  R@0,Z+@2
	LDD  R@1,Z+@2+1
	.ENDM

	.MACRO __GETD2Z
	LDD  R26,Z+@0
	LDD  R27,Z+@0+1
	LDD  R24,Z+@0+2
	LDD  R25,Z+@0+3
	.ENDM

	.MACRO __GETB2MN
	LDS  R26,@0+(@1)
	.ENDM

	.MACRO __GETW2MN
	LDS  R26,@0+(@1)
	LDS  R27,@0+(@1)+1
	.ENDM

	.MACRO __GETD2MN
	LDS  R26,@0+(@1)
	LDS  R27,@0+(@1)+1
	LDS  R24,@0+(@1)+2
	LDS  R25,@0+(@1)+3
	.ENDM

	.MACRO __PUTB1MN
	STS  @0+(@1),R30
	.ENDM

	.MACRO __PUTW1MN
	STS  @0+(@1),R30
	STS  @0+(@1)+1,R31
	.ENDM

	.MACRO __PUTD1MN
	STS  @0+(@1),R30
	STS  @0+(@1)+1,R31
	STS  @0+(@1)+2,R22
	STS  @0+(@1)+3,R23
	.ENDM

	.MACRO __PUTB1EN
	LDI  R26,LOW(@0+(@1))
	LDI  R27,HIGH(@0+(@1))
	CALL __EEPROMWRB
	.ENDM

	.MACRO __PUTW1EN
	LDI  R26,LOW(@0+(@1))
	LDI  R27,HIGH(@0+(@1))
	CALL __EEPROMWRW
	.ENDM

	.MACRO __PUTD1EN
	LDI  R26,LOW(@0+(@1))
	LDI  R27,HIGH(@0+(@1))
	CALL __EEPROMWRD
	.ENDM

	.MACRO __PUTBR0MN
	STS  @0+(@1),R0
	.ENDM

	.MACRO __PUTBMRN
	STS  @0+(@1),R@2
	.ENDM

	.MACRO __PUTWMRN
	STS  @0+(@1),R@2
	STS  @0+(@1)+1,R@3
	.ENDM

	.MACRO __PUTBZR
	STD  Z+@1,R@0
	.ENDM

	.MACRO __PUTWZR
	STD  Z+@2,R@0
	STD  Z+@2+1,R@1
	.ENDM

	.MACRO __GETW1R
	MOV  R30,R@0
	MOV  R31,R@1
	.ENDM

	.MACRO __GETW2R
	MOV  R26,R@0
	MOV  R27,R@1
	.ENDM

	.MACRO __GETWRN
	LDI  R@0,LOW(@2)
	LDI  R@1,HIGH(@2)
	.ENDM

	.MACRO __PUTW1R
	MOV  R@0,R30
	MOV  R@1,R31
	.ENDM

	.MACRO __PUTW2R
	MOV  R@0,R26
	MOV  R@1,R27
	.ENDM

	.MACRO __ADDWRN
	SUBI R@0,LOW(-@2)
	SBCI R@1,HIGH(-@2)
	.ENDM

	.MACRO __ADDWRR
	ADD  R@0,R@2
	ADC  R@1,R@3
	.ENDM

	.MACRO __SUBWRN
	SUBI R@0,LOW(@2)
	SBCI R@1,HIGH(@2)
	.ENDM

	.MACRO __SUBWRR
	SUB  R@0,R@2
	SBC  R@1,R@3
	.ENDM

	.MACRO __ANDWRN
	ANDI R@0,LOW(@2)
	ANDI R@1,HIGH(@2)
	.ENDM

	.MACRO __ANDWRR
	AND  R@0,R@2
	AND  R@1,R@3
	.ENDM

	.MACRO __ORWRN
	ORI  R@0,LOW(@2)
	ORI  R@1,HIGH(@2)
	.ENDM

	.MACRO __ORWRR
	OR   R@0,R@2
	OR   R@1,R@3
	.ENDM

	.MACRO __EORWRR
	EOR  R@0,R@2
	EOR  R@1,R@3
	.ENDM

	.MACRO __GETWRS
	LDD  R@0,Y+@2
	LDD  R@1,Y+@2+1
	.ENDM

	.MACRO __PUTBSR
	STD  Y+@1,R@0
	.ENDM

	.MACRO __PUTWSR
	STD  Y+@2,R@0
	STD  Y+@2+1,R@1
	.ENDM

	.MACRO __MOVEWRR
	MOV  R@0,R@2
	MOV  R@1,R@3
	.ENDM

	.MACRO __INWR
	IN   R@0,@2
	IN   R@1,@2+1
	.ENDM

	.MACRO __OUTWR
	OUT  @2+1,R@1
	OUT  @2,R@0
	.ENDM

	.MACRO __CALL1MN
	LDS  R30,@0+(@1)
	LDS  R31,@0+(@1)+1
	ICALL
	.ENDM

	.MACRO __CALL1FN
	LDI  R30,LOW(2*@0+(@1))
	LDI  R31,HIGH(2*@0+(@1))
	CALL __GETW1PF
	ICALL
	.ENDM

	.MACRO __CALL2EN
	PUSH R26
	PUSH R27
	LDI  R26,LOW(@0+(@1))
	LDI  R27,HIGH(@0+(@1))
	CALL __EEPROMRDW
	POP  R27
	POP  R26
	ICALL
	.ENDM

	.MACRO __CALL2EX
	SUBI R26,LOW(-@0)
	SBCI R27,HIGH(-@0)
	CALL __EEPROMRDD
	ICALL
	.ENDM

	.MACRO __GETW1STACK
	IN   R30,SPL
	IN   R31,SPH
	ADIW R30,@0+1
	LD   R0,Z+
	LD   R31,Z
	MOV  R30,R0
	.ENDM

	.MACRO __GETD1STACK
	IN   R30,SPL
	IN   R31,SPH
	ADIW R30,@0+1
	LD   R0,Z+
	LD   R1,Z+
	LD   R22,Z
	MOVW R30,R0
	.ENDM

	.MACRO __NBST
	BST  R@0,@1
	IN   R30,SREG
	LDI  R31,0x40
	EOR  R30,R31
	OUT  SREG,R30
	.ENDM


	.MACRO __PUTB1SN
	LDD  R26,Y+@0
	LDD  R27,Y+@0+1
	SUBI R26,LOW(-@1)
	SBCI R27,HIGH(-@1)
	ST   X,R30
	.ENDM

	.MACRO __PUTW1SN
	LDD  R26,Y+@0
	LDD  R27,Y+@0+1
	SUBI R26,LOW(-@1)
	SBCI R27,HIGH(-@1)
	ST   X+,R30
	ST   X,R31
	.ENDM

	.MACRO __PUTD1SN
	LDD  R26,Y+@0
	LDD  R27,Y+@0+1
	SUBI R26,LOW(-@1)
	SBCI R27,HIGH(-@1)
	CALL __PUTDP1
	.ENDM

	.MACRO __PUTB1SNS
	LDD  R26,Y+@0
	LDD  R27,Y+@0+1
	ADIW R26,@1
	ST   X,R30
	.ENDM

	.MACRO __PUTW1SNS
	LDD  R26,Y+@0
	LDD  R27,Y+@0+1
	ADIW R26,@1
	ST   X+,R30
	ST   X,R31
	.ENDM

	.MACRO __PUTD1SNS
	LDD  R26,Y+@0
	LDD  R27,Y+@0+1
	ADIW R26,@1
	CALL __PUTDP1
	.ENDM

	.MACRO __PUTB1PMN
	LDS  R26,@0
	LDS  R27,@0+1
	SUBI R26,LOW(-@1)
	SBCI R27,HIGH(-@1)
	ST   X,R30
	.ENDM

	.MACRO __PUTW1PMN
	LDS  R26,@0
	LDS  R27,@0+1
	SUBI R26,LOW(-@1)
	SBCI R27,HIGH(-@1)
	ST   X+,R30
	ST   X,R31
	.ENDM

	.MACRO __PUTD1PMN
	LDS  R26,@0
	LDS  R27,@0+1
	SUBI R26,LOW(-@1)
	SBCI R27,HIGH(-@1)
	CALL __PUTDP1
	.ENDM

	.MACRO __PUTB1PMNS
	LDS  R26,@0
	LDS  R27,@0+1
	ADIW R26,@1
	ST   X,R30
	.ENDM

	.MACRO __PUTW1PMNS
	LDS  R26,@0
	LDS  R27,@0+1
	ADIW R26,@1
	ST   X+,R30
	ST   X,R31
	.ENDM

	.MACRO __PUTD1PMNS
	LDS  R26,@0
	LDS  R27,@0+1
	ADIW R26,@1
	CALL __PUTDP1
	.ENDM

	.MACRO __PUTB1RN
	MOVW R26,R@0
	SUBI R26,LOW(-@1)
	SBCI R27,HIGH(-@1)
	ST   X,R30
	.ENDM

	.MACRO __PUTW1RN
	MOVW R26,R@0
	SUBI R26,LOW(-@1)
	SBCI R27,HIGH(-@1)
	ST   X+,R30
	ST   X,R31
	.ENDM

	.MACRO __PUTD1RN
	MOVW R26,R@0
	SUBI R26,LOW(-@1)
	SBCI R27,HIGH(-@1)
	CALL __PUTDP1
	.ENDM

	.MACRO __PUTB1RNS
	MOVW R26,R@0
	ADIW R26,@1
	ST   X,R30
	.ENDM

	.MACRO __PUTW1RNS
	MOVW R26,R@0
	ADIW R26,@1
	ST   X+,R30
	ST   X,R31
	.ENDM

	.MACRO __PUTD1RNS
	MOVW R26,R@0
	ADIW R26,@1
	CALL __PUTDP1
	.ENDM

	.MACRO __PUTB1RON
	MOV  R26,R@0
	MOV  R27,R@1
	SUBI R26,LOW(-@2)
	SBCI R27,HIGH(-@2)
	ST   X,R30
	.ENDM

	.MACRO __PUTW1RON
	MOV  R26,R@0
	MOV  R27,R@1
	SUBI R26,LOW(-@2)
	SBCI R27,HIGH(-@2)
	ST   X+,R30
	ST   X,R31
	.ENDM

	.MACRO __PUTD1RON
	MOV  R26,R@0
	MOV  R27,R@1
	SUBI R26,LOW(-@2)
	SBCI R27,HIGH(-@2)
	CALL __PUTDP1
	.ENDM

	.MACRO __PUTB1RONS
	MOV  R26,R@0
	MOV  R27,R@1
	ADIW R26,@2
	ST   X,R30
	.ENDM

	.MACRO __PUTW1RONS
	MOV  R26,R@0
	MOV  R27,R@1
	ADIW R26,@2
	ST   X+,R30
	ST   X,R31
	.ENDM

	.MACRO __PUTD1RONS
	MOV  R26,R@0
	MOV  R27,R@1
	ADIW R26,@2
	CALL __PUTDP1
	.ENDM


	.MACRO __GETB1SX
	MOVW R30,R28
	SUBI R30,LOW(-@0)
	SBCI R31,HIGH(-@0)
	LD   R30,Z
	.ENDM

	.MACRO __GETB1HSX
	MOVW R30,R28
	SUBI R30,LOW(-@0)
	SBCI R31,HIGH(-@0)
	LD   R31,Z
	.ENDM

	.MACRO __GETW1SX
	MOVW R30,R28
	SUBI R30,LOW(-@0)
	SBCI R31,HIGH(-@0)
	LD   R0,Z+
	LD   R31,Z
	MOV  R30,R0
	.ENDM

	.MACRO __GETD1SX
	MOVW R30,R28
	SUBI R30,LOW(-@0)
	SBCI R31,HIGH(-@0)
	LD   R0,Z+
	LD   R1,Z+
	LD   R22,Z+
	LD   R23,Z
	MOVW R30,R0
	.ENDM

	.MACRO __GETB2SX
	MOVW R26,R28
	SUBI R26,LOW(-@0)
	SBCI R27,HIGH(-@0)
	LD   R26,X
	.ENDM

	.MACRO __GETW2SX
	MOVW R26,R28
	SUBI R26,LOW(-@0)
	SBCI R27,HIGH(-@0)
	LD   R0,X+
	LD   R27,X
	MOV  R26,R0
	.ENDM

	.MACRO __GETD2SX
	MOVW R26,R28
	SUBI R26,LOW(-@0)
	SBCI R27,HIGH(-@0)
	LD   R0,X+
	LD   R1,X+
	LD   R24,X+
	LD   R25,X
	MOVW R26,R0
	.ENDM

	.MACRO __GETBRSX
	MOVW R30,R28
	SUBI R30,LOW(-@1)
	SBCI R31,HIGH(-@1)
	LD   R@0,Z
	.ENDM

	.MACRO __GETWRSX
	MOVW R30,R28
	SUBI R30,LOW(-@2)
	SBCI R31,HIGH(-@2)
	LD   R@0,Z+
	LD   R@1,Z
	.ENDM

	.MACRO __GETBRSX2
	MOVW R26,R28
	SUBI R26,LOW(-@1)
	SBCI R27,HIGH(-@1)
	LD   R@0,X
	.ENDM

	.MACRO __GETWRSX2
	MOVW R26,R28
	SUBI R26,LOW(-@2)
	SBCI R27,HIGH(-@2)
	LD   R@0,X+
	LD   R@1,X
	.ENDM

	.MACRO __LSLW8SX
	MOVW R30,R28
	SUBI R30,LOW(-@0)
	SBCI R31,HIGH(-@0)
	LD   R31,Z
	CLR  R30
	.ENDM

	.MACRO __PUTB1SX
	MOVW R26,R28
	SUBI R26,LOW(-@0)
	SBCI R27,HIGH(-@0)
	ST   X,R30
	.ENDM

	.MACRO __PUTW1SX
	MOVW R26,R28
	SUBI R26,LOW(-@0)
	SBCI R27,HIGH(-@0)
	ST   X+,R30
	ST   X,R31
	.ENDM

	.MACRO __PUTD1SX
	MOVW R26,R28
	SUBI R26,LOW(-@0)
	SBCI R27,HIGH(-@0)
	ST   X+,R30
	ST   X+,R31
	ST   X+,R22
	ST   X,R23
	.ENDM

	.MACRO __CLRW1SX
	MOVW R26,R28
	SUBI R26,LOW(-@0)
	SBCI R27,HIGH(-@0)
	ST   X+,R30
	ST   X,R30
	.ENDM

	.MACRO __CLRD1SX
	MOVW R26,R28
	SUBI R26,LOW(-@0)
	SBCI R27,HIGH(-@0)
	ST   X+,R30
	ST   X+,R30
	ST   X+,R30
	ST   X,R30
	.ENDM

	.MACRO __PUTB2SX
	MOVW R30,R28
	SUBI R30,LOW(-@0)
	SBCI R31,HIGH(-@0)
	ST   Z,R26
	.ENDM

	.MACRO __PUTW2SX
	MOVW R30,R28
	SUBI R30,LOW(-@0)
	SBCI R31,HIGH(-@0)
	ST   Z+,R26
	ST   Z,R27
	.ENDM

	.MACRO __PUTD2SX
	MOVW R30,R28
	SUBI R30,LOW(-@0)
	SBCI R31,HIGH(-@0)
	ST   Z+,R26
	ST   Z+,R27
	ST   Z+,R24
	ST   Z,R25
	.ENDM

	.MACRO __PUTBSRX
	MOVW R30,R28
	SUBI R30,LOW(-@1)
	SBCI R31,HIGH(-@1)
	ST   Z,R@0
	.ENDM

	.MACRO __PUTWSRX
	MOVW R30,R28
	SUBI R30,LOW(-@2)
	SBCI R31,HIGH(-@2)
	ST   Z+,R@0
	ST   Z,R@1
	.ENDM

	.MACRO __PUTB1SNX
	MOVW R26,R28
	SUBI R26,LOW(-@0)
	SBCI R27,HIGH(-@0)
	LD   R0,X+
	LD   R27,X
	MOV  R26,R0
	SUBI R26,LOW(-@1)
	SBCI R27,HIGH(-@1)
	ST   X,R30
	.ENDM

	.MACRO __PUTW1SNX
	MOVW R26,R28
	SUBI R26,LOW(-@0)
	SBCI R27,HIGH(-@0)
	LD   R0,X+
	LD   R27,X
	MOV  R26,R0
	SUBI R26,LOW(-@1)
	SBCI R27,HIGH(-@1)
	ST   X+,R30
	ST   X,R31
	.ENDM

	.MACRO __PUTD1SNX
	MOVW R26,R28
	SUBI R26,LOW(-@0)
	SBCI R27,HIGH(-@0)
	LD   R0,X+
	LD   R27,X
	MOV  R26,R0
	SUBI R26,LOW(-@1)
	SBCI R27,HIGH(-@1)
	ST   X+,R30
	ST   X+,R31
	ST   X+,R22
	ST   X,R23
	.ENDM

	.MACRO __MULBRR
	MULS R@0,R@1
	MOVW R30,R0
	.ENDM

	.MACRO __MULBRRU
	MUL  R@0,R@1
	MOVW R30,R0
	.ENDM

	.MACRO __MULBRR0
	MULS R@0,R@1
	.ENDM

	.MACRO __MULBRRU0
	MUL  R@0,R@1
	.ENDM

	.MACRO __MULBNWRU
	LDI  R26,@2
	MUL  R26,R@0
	MOVW R30,R0
	MUL  R26,R@1
	ADD  R31,R0
	.ENDM

;NAME DEFINITIONS FOR GLOBAL VARIABLES ALLOCATED TO REGISTERS
	.DEF _op=R5
	.DEF _last_op=R4
	.DEF _dis=R7
	.DEF __lcd_x=R6
	.DEF __lcd_y=R9
	.DEF __lcd_maxx=R8

	.CSEG
	.ORG 0x00

;START OF CODE MARKER
__START_OF_CODE:

;INTERRUPT VECTORS
	JMP  __RESET
	JMP  0x00
	JMP  0x00
	JMP  0x00
	JMP  0x00
	JMP  0x00
	JMP  0x00
	JMP  0x00
	JMP  0x00
	JMP  0x00
	JMP  0x00
	JMP  0x00
	JMP  0x00
	JMP  0x00
	JMP  0x00
	JMP  0x00
	JMP  0x00
	JMP  0x00
	JMP  0x00
	JMP  0x00
	JMP  0x00

_0x3:
	.DB  0xFE,0xFD,0xFB,0xF7
_0x4:
	.DB  0x63,0x37,0x38,0x39,0x2A,0x2F,0x6E,0x34
	.DB  0x35,0x36,0x2D,0x6D,0x25,0x31,0x32,0x33
	.DB  0x2B,0x64,0x73,0x30,0x2E,0x3D,0x2B,0x69
_0x24:
	.DB  0x0,0x0,0x0,0x0,0x0,0x0,0x0,0x0
	.DB  0x1,0x0,0x0,0x0,0xA,0x0,0x0,0x0
	.DB  0x64,0x0,0x0,0x0,0xE8,0x3,0x0,0x0
	.DB  0x10,0x27,0x0,0x0,0xA0,0x86,0x1,0x0
	.DB  0x40,0x42,0xF,0x0,0x80,0x96,0x98,0x0
	.DB  0x0,0xE1,0xF5,0x5,0x0,0x0
_0x3B:
	.DB  0x4D,0x61,0x20,0x45,0x52,0x52,0x4F,0x52
_0x0:
	.DB  0xA,0x25,0x66,0x0,0x41,0x6E,0x73,0x0
	.DB  0x25,0x66,0xA,0x25,0x66,0x0,0x25,0x2E
	.DB  0x32,0x66,0x25,0x63,0x25,0x2E,0x32,0x66
	.DB  0xA,0x25,0x66,0x0,0x4D,0x45,0x4D,0x4F
	.DB  0x52,0x59,0xA,0x4D,0x3D,0x25,0x66,0x0
_0x2000003:
	.DB  0x80,0xC0
_0x2020000:
	.DB  0x2D,0x4E,0x41,0x4E,0x0
_0x20A0060:
	.DB  0x1
_0x20A0000:
	.DB  0x2D,0x4E,0x41,0x4E,0x0,0x49,0x4E,0x46
	.DB  0x0

__GLOBAL_INI_TBL:
	.DW  0x04
	.DW  _scan
	.DW  _0x3*2

	.DW  0x18
	.DW  _arrkey
	.DW  _0x4*2

	.DW  0x08
	.DW  _ma_error
	.DW  _0x3B*2

	.DW  0x02
	.DW  __base_y_G100
	.DW  _0x2000003*2

	.DW  0x01
	.DW  __seed_G105
	.DW  _0x20A0060*2

_0xFFFFFFFF:
	.DW  0

#define __GLOBAL_INI_TBL_PRESENT 1

__RESET:
	CLI
	CLR  R30
	OUT  EECR,R30

;INTERRUPT VECTORS ARE PLACED
;AT THE START OF FLASH
	LDI  R31,1
	OUT  GICR,R31
	OUT  GICR,R30
	OUT  MCUCR,R30

;DISABLE WATCHDOG
	LDI  R31,0x18
	OUT  WDTCR,R31
	OUT  WDTCR,R30

;CLEAR R2-R14
	LDI  R24,(14-2)+1
	LDI  R26,2
	CLR  R27
__CLEAR_REG:
	ST   X+,R30
	DEC  R24
	BRNE __CLEAR_REG

;CLEAR SRAM
	LDI  R24,LOW(__CLEAR_SRAM_SIZE)
	LDI  R25,HIGH(__CLEAR_SRAM_SIZE)
	LDI  R26,__SRAM_START
__CLEAR_SRAM:
	ST   X+,R30
	SBIW R24,1
	BRNE __CLEAR_SRAM

;GLOBAL VARIABLES INITIALIZATION
	LDI  R30,LOW(__GLOBAL_INI_TBL*2)
	LDI  R31,HIGH(__GLOBAL_INI_TBL*2)
__GLOBAL_INI_NEXT:
	LPM  R24,Z+
	LPM  R25,Z+
	SBIW R24,0
	BREQ __GLOBAL_INI_END
	LPM  R26,Z+
	LPM  R27,Z+
	LPM  R0,Z+
	LPM  R1,Z+
	MOVW R22,R30
	MOVW R30,R0
__GLOBAL_INI_LOOP:
	LPM  R0,Z+
	ST   X+,R0
	SBIW R24,1
	BRNE __GLOBAL_INI_LOOP
	MOVW R30,R22
	RJMP __GLOBAL_INI_NEXT
__GLOBAL_INI_END:

;HARDWARE STACK POINTER INITIALIZATION
	LDI  R30,LOW(__SRAM_END-__HEAP_SIZE)
	OUT  SPL,R30
	LDI  R30,HIGH(__SRAM_END-__HEAP_SIZE)
	OUT  SPH,R30

;DATA STACK POINTER INITIALIZATION
	LDI  R28,LOW(__SRAM_START+__DSTACK_SIZE)
	LDI  R29,HIGH(__SRAM_START+__DSTACK_SIZE)

	JMP  _main

	.ESEG
	.ORG 0

	.DSEG
	.ORG 0x160

	.CSEG
;/*******************************************************
;This program was created by the
;CodeWizardAVR V3.12 Advanced
;Automatic Program Generator
;© Copyright 1998-2014 Pavel Haiduc, HP InfoTech s.r.l.
;http://www.hpinfotech.com
;
;Project :
;Version :
;Date    : 1/23/2022
;Author  : PARSA VARES
;Company : SRBIAU
;Comments:
;
;
;Chip type               : ATmega16
;Program type            : Application
;AVR Core Clock frequency: 8.000000 MHz
;Memory model            : Small
;External RAM size       : 0
;Data Stack size         : 256
;*******************************************************/
;
;#include <mega16.h>
	#ifndef __SLEEP_DEFINED__
	#define __SLEEP_DEFINED__
	.EQU __se_bit=0x40
	.EQU __sm_mask=0xB0
	.EQU __sm_powerdown=0x20
	.EQU __sm_powersave=0x30
	.EQU __sm_standby=0xA0
	.EQU __sm_ext_standby=0xB0
	.EQU __sm_adc_noise_red=0x10
	.SET power_ctrl_reg=mcucr
	#endif
;#include <lcd.h>
;#include <stdio.h>
;#include <math.h>
;#include <keypad.h>

	.DSEG

	.CSEG
_keypad:
; .FSTART _keypad
	CALL __SAVELOCR4
;	r -> R17
;	c -> R16
;	k -> R19
	LDI  R30,LOW(15)
	OUT  0x17,R30
	LDI  R30,LOW(255)
	OUT  0x18,R30
	LDI  R30,LOW(0)
	OUT  0x1A,R30
	LDI  R30,LOW(15)
	OUT  0x1B,R30
_0x5:
	LDI  R17,LOW(0)
_0x9:
	CPI  R17,4
	BRSH _0xA
	LDI  R16,LOW(6)
	MOV  R30,R17
	LDI  R31,0
	SUBI R30,LOW(-_scan)
	SBCI R31,HIGH(-_scan)
	LD   R30,Z
	OUT  0x18,R30
	__DELAY_USB 27
	SBIS 0x16,4
	LDI  R16,LOW(0)
	SBIS 0x16,5
	LDI  R16,LOW(1)
	SBIS 0x16,6
	LDI  R16,LOW(2)
	SBIS 0x16,7
	LDI  R16,LOW(3)
	SBIS 0x19,0
	LDI  R16,LOW(4)
	SBIS 0x19,1
	LDI  R16,LOW(5)
	CPI  R16,6
	BREQ _0x11
	LDI  R30,LOW(6)
	MUL  R30,R17
	MOVW R30,R0
	MOVW R26,R30
	MOV  R30,R16
	LDI  R31,0
	ADD  R30,R26
	ADC  R31,R27
	SUBI R30,LOW(-_arrkey)
	SBCI R31,HIGH(-_arrkey)
	LD   R19,Z
_0x12:
	SBIS 0x16,4
	RJMP _0x12
_0x15:
	SBIS 0x16,5
	RJMP _0x15
_0x18:
	SBIS 0x16,6
	RJMP _0x18
_0x1B:
	SBIS 0x16,7
	RJMP _0x1B
_0x1E:
	SBIS 0x19,0
	RJMP _0x1E
_0x21:
	SBIS 0x19,1
	RJMP _0x21
	LDI  R26,LOW(50)
	LDI  R27,0
	CALL _delay_ms
	MOV  R30,R19
	CALL __LOADLOCR4
	RJMP _0x20C000C
_0x11:
	SUBI R17,-1
	RJMP _0x9
_0xA:
	RJMP _0x5
; .FEND
;#include <inputNum.h>
_input_digit:
; .FSTART _input_digit
	SBIW R28,56
	LDI  R24,46
	LDI  R26,LOW(0)
	LDI  R27,HIGH(0)
	LDI  R30,LOW(_0x24*2)
	LDI  R31,HIGH(_0x24*2)
	CALL __INITLOCB
	CALL __SAVELOCR6
;	key -> R17
;	k -> R16
;	count -> R19
;	count2 -> R18
;	i -> R21
;	t -> R20
;	indigt -> Y+52
;	neg -> Y+51
;	ashar -> Y+50
;	zarib -> Y+14
;	n -> Y+10
;	n2 -> Y+6
	TST  R5
	BREQ _0x25
	MOV  R26,R5
	CALL _lcd_putchar
_0x25:
_0x26:
	__GETD1N 0x0
	CALL SUBOPT_0x0
	CALL __CFD1U
	MOV  R20,R30
	MOV  R18,R30
	MOV  R19,R30
	MOV  R5,R30
_0x27:
	TST  R5
	BREQ PC+2
	RJMP _0x29
	RCALL _keypad
	MOV  R17,R30
	TST  R7
	BREQ _0x2A
	CALL SUBOPT_0x1
	__POINTW1FN _0x0,0
	ST   -Y,R31
	ST   -Y,R30
	CALL SUBOPT_0x2
	CALL SUBOPT_0x3
	CALL SUBOPT_0x4
	CLR  R7
_0x2A:
	CPI  R17,48
	BREQ _0x2C
	CPI  R17,49
	BREQ _0x2C
	CPI  R17,50
	BREQ _0x2C
	CPI  R17,51
	BREQ _0x2C
	CPI  R17,52
	BREQ _0x2C
	CPI  R17,53
	BREQ _0x2C
	CPI  R17,54
	BREQ _0x2C
	CPI  R17,55
	BREQ _0x2C
	CPI  R17,56
	BREQ _0x2C
	CPI  R17,57
	BRNE _0x2B
_0x2C:
	CPI  R19,9
	BRSH _0x2E
	MOV  R26,R17
	CALL _lcd_putchar
	MOV  R30,R17
	ANDI R30,LOW(0xF)
	MOV  R16,R30
	MOV  R30,R19
	LDI  R31,0
	MOVW R26,R28
	ADIW R26,52
	ADD  R30,R26
	ADC  R31,R27
	ST   Z,R16
	SUBI R19,-1
	MOV  R18,R19
_0x2E:
	RJMP _0x2F
_0x2B:
	MOV  R5,R17
_0x2F:
	LDI  R30,LOW(110)
	CP   R30,R5
	BRNE _0x30
	CLR  R5
	LDI  R30,LOW(1)
	STD  Y+51,R30
	LDI  R26,LOW(45)
	CALL _lcd_putchar
_0x30:
	LDI  R30,LOW(46)
	CP   R30,R5
	BRNE _0x31
	LDD  R30,Y+50
	CPI  R30,0
	BRNE _0x32
	LDI  R26,LOW(46)
	CALL _lcd_putchar
_0x32:
	LDI  R30,LOW(1)
	STD  Y+50,R30
_0x31:
	RJMP _0x27
_0x29:
	CPI  R19,0
	BREQ _0x33
	SUBI R19,LOW(1)
	MOV  R20,R19
_0x33:
	LDI  R21,LOW(0)
_0x35:
	CP   R20,R21
	BRLO _0x36
	MOV  R30,R21
	LDI  R31,0
	MOVW R26,R28
	ADIW R26,52
	ADD  R26,R30
	ADC  R27,R31
	LD   R0,X
	CLR  R1
	MOV  R30,R19
	CALL SUBOPT_0x5
	MOVW R26,R0
	CALL __CWD2
	CALL __MULD12U
	CALL SUBOPT_0x6
	CALL __ADDF12
	CALL SUBOPT_0x0
	SUBI R19,1
	SUBI R21,-1
	RJMP _0x35
_0x36:
	LDD  R26,Y+50
	CPI  R26,LOW(0x1)
	BRNE _0x37
	LDI  R30,LOW(2)
	STD  Y+50,R30
	CALL SUBOPT_0x7
	__PUTD1S 6
	RJMP _0x26
_0x37:
	LDD  R26,Y+50
	CPI  R26,LOW(0x2)
	BRNE _0x38
	MOV  R30,R21
	CALL SUBOPT_0x5
	CALL SUBOPT_0x6
	CALL __DIVF21
	CALL SUBOPT_0x0
	__GETD1S 6
	CALL SUBOPT_0x8
	CALL __ADDF12
	CALL SUBOPT_0x0
_0x38:
	LDD  R30,Y+51
	CPI  R30,0
	BREQ _0x39
	LDI  R30,LOW(0)
	STD  Y+51,R30
	CALL SUBOPT_0x8
	__GETD1N 0xBF800000
	CALL __MULF12
	CALL SUBOPT_0x0
_0x39:
	CPI  R18,0
	BRNE _0x3A
	CALL SUBOPT_0x2
	CALL SUBOPT_0x0
	__POINTW2FN _0x0,4
	CALL _lcd_putsf
_0x3A:
	CALL SUBOPT_0x7
	CALL __LOADLOCR6
	ADIW R28,62
	RET
; .FEND
;#include <delay.h>
;#define xtal 8000000
;#asm
   .equ __lcd_port=0x12 ;PORTD
; 0000 0022 #endasm
;//--------------------------
;    char op,last_op,dis;
;    float ans,a,b;
;    char buffer[40];
;     float m;
;//--------------------------
;    char ma_error[]="Ma ERROR";

	.DSEG
;    //char syn_error[]="Syntax ERROR";
;//--------------------------
;
; void display1 (){
; 0000 002D void display1 (){

	.CSEG
_display1:
; .FSTART _display1
; 0000 002E     lcd_clear();
	CALL SUBOPT_0x1
; 0000 002F     sprintf(buffer,"%f\n%f",a,ans);
	CALL SUBOPT_0x9
; 0000 0030     lcd_puts(buffer);
	RJMP _0x20C000B
; 0000 0031     dis=1;
; 0000 0032  }
; .FEND
;
; void display2 (){
; 0000 0034 void display2 (){
_display2:
; .FSTART _display2
; 0000 0035     op=last_op;
	MOV  R5,R4
; 0000 0036     lcd_clear();
	CALL SUBOPT_0x1
; 0000 0037     sprintf(buffer,"%.2f%c%.2f\n%f",a,op,b,ans);
	__POINTW1FN _0x0,14
	ST   -Y,R31
	ST   -Y,R30
	CALL SUBOPT_0xA
	CALL __PUTPARD1
	MOV  R30,R5
	CLR  R31
	CLR  R22
	CLR  R23
	CALL __PUTPARD1
	CALL SUBOPT_0xB
	CALL __PUTPARD1
	CALL SUBOPT_0x2
	CALL __PUTPARD1
	LDI  R24,16
	CALL _sprintf
	ADIW R28,20
; 0000 0038     lcd_puts(buffer);
	LDI  R26,LOW(_buffer)
	LDI  R27,HIGH(_buffer)
	RJMP _0x20C000B
; 0000 0039     dis=1;
; 0000 003A  }
; .FEND
;
;  void display3 (unsigned char sign_char){
; 0000 003C void display3 (unsigned char sign_char){
_display3:
; .FSTART _display3
; 0000 003D     lcd_clear();
	ST   -Y,R26
;	sign_char -> Y+0
	CALL _lcd_clear
; 0000 003E     lcd_write_byte(0x80,sign_char);
	LDI  R30,LOW(128)
	ST   -Y,R30
	LDD  R26,Y+1
	CALL _lcd_write_byte
; 0000 003F     sprintf(buffer,"%f\n%f",a,ans);
	LDI  R30,LOW(_buffer)
	LDI  R31,HIGH(_buffer)
	ST   -Y,R31
	ST   -Y,R30
	CALL SUBOPT_0x9
; 0000 0040     lcd_puts(buffer);
	CALL _lcd_puts
; 0000 0041     dis=1;
	LDI  R30,LOW(1)
	MOV  R7,R30
; 0000 0042  }
	JMP  _0x20C0006
; .FEND
;
;  void display4 (float m){
; 0000 0044 void display4 (float m){
_display4:
; .FSTART _display4
; 0000 0045     lcd_clear();
	CALL __PUTPARD2
;	m -> Y+0
	CALL SUBOPT_0x1
; 0000 0046     sprintf(buffer,"MEMORY\nM=%f",m);
	__POINTW1FN _0x0,28
	ST   -Y,R31
	ST   -Y,R30
	CALL SUBOPT_0xC
	CALL SUBOPT_0x3
; 0000 0047     lcd_puts(buffer);
; 0000 0048     dis=1;
	LDI  R30,LOW(1)
	MOV  R7,R30
; 0000 0049  }
_0x20C000C:
	ADIW R28,4
	RET
; .FEND
;  /* void display5 (float m){
;    lcd_clear();
;    sprintf(buffer,"MEMORY2\nM=%f",m);
;    lcd_puts(buffer);
;    dis=1;
; }                 */
;
; void equal(){   // =
; 0000 0051 void equal(){
_equal:
; .FSTART _equal
; 0000 0052    ans=a;
	CALL SUBOPT_0xA
	CALL SUBOPT_0xD
; 0000 0053    display1();
	RCALL _display1
; 0000 0054     //display5();
; 0000 0055     }
	RET
; .FEND
;
;  void may_error(){
; 0000 0057 void may_error(){
_may_error:
; .FSTART _may_error
; 0000 0058       lcd_clear();
	CALL _lcd_clear
; 0000 0059       lcd_gotoxy(6,0);
	LDI  R30,LOW(6)
	ST   -Y,R30
	LDI  R26,LOW(0)
	CALL _lcd_gotoxy
; 0000 005A       lcd_puts(ma_error);
	LDI  R26,LOW(_ma_error)
	LDI  R27,HIGH(_ma_error)
_0x20C000B:
	CALL _lcd_puts
; 0000 005B       dis=1;
	LDI  R30,LOW(1)
	MOV  R7,R30
; 0000 005C  }
	RET
; .FEND
;
; void clear_var(){
; 0000 005E void clear_var(){
_clear_var:
; .FSTART _clear_var
; 0000 005F     ans=a=b=op=last_op=0;
	LDI  R30,LOW(0)
	MOV  R4,R30
	MOV  R5,R30
	LDI  R26,LOW(_b)
	LDI  R27,HIGH(_b)
	CLR  R31
	CLR  R22
	CLR  R23
	CALL __CDF1
	CALL __PUTDP1
	CALL SUBOPT_0xE
	CALL SUBOPT_0xD
; 0000 0060     lcd_clear();
	CALL _lcd_clear
; 0000 0061     lcd_gotoxy(19,1);
	LDI  R30,LOW(19)
	ST   -Y,R30
	LDI  R26,LOW(1)
	CALL _lcd_gotoxy
; 0000 0062     lcd_putchar('0');
	LDI  R26,LOW(48)
	CALL _lcd_putchar
; 0000 0063     lcd_gotoxy(0,0);
	CALL SUBOPT_0x4
; 0000 0064     _lcd_ready();
; 0000 0065     _lcd_write_data(0x0f);
; 0000 0066  }
	RET
; .FEND
;
; void calculat_add(){     //+
; 0000 0068 void calculat_add(){
_calculat_add:
; .FSTART _calculat_add
; 0000 0069   b=input_digit();
	CALL SUBOPT_0xF
; 0000 006A   ans=a+b;
	CALL SUBOPT_0x10
	CALL __ADDF12
	RJMP _0x20C000A
; 0000 006B   display2();
; 0000 006C     //display5();
; 0000 006D  }
; .FEND
;
; void calculat_min(){    //-
; 0000 006F void calculat_min(){
_calculat_min:
; .FSTART _calculat_min
; 0000 0070   b=input_digit();
	CALL SUBOPT_0xF
; 0000 0071   ans=a-b;
	LDS  R26,_b
	LDS  R27,_b+1
	LDS  R24,_b+2
	LDS  R25,_b+3
	CALL SUBOPT_0xA
	CALL __SUBF12
	RJMP _0x20C000A
; 0000 0072   display2();
; 0000 0073   //display5();
; 0000 0074  }
; .FEND
;
; void calculat_mul(){      //*
; 0000 0076 void calculat_mul(){
_calculat_mul:
; .FSTART _calculat_mul
; 0000 0077   b=input_digit();
	CALL SUBOPT_0xF
; 0000 0078   ans=a*b;
	CALL SUBOPT_0x10
	CALL __MULF12
	RJMP _0x20C000A
; 0000 0079   display2();
; 0000 007A     //display5();
; 0000 007B  }
; .FEND
;
;  void calculat_div(){       // /
; 0000 007D void calculat_div(){
_calculat_div:
; .FSTART _calculat_div
; 0000 007E   b=input_digit();
	CALL SUBOPT_0xF
; 0000 007F     if(b==0){
	CALL SUBOPT_0xB
	CALL __CPD10
	BRNE _0x3C
; 0000 0080         may_error();
	RCALL _may_error
; 0000 0081     }else{
	RJMP _0x3D
_0x3C:
; 0000 0082      ans=a/b;
	CALL SUBOPT_0x10
	CALL __DIVF21
	CALL SUBOPT_0xD
; 0000 0083      display2();
	RCALL _display2
; 0000 0084    }
_0x3D:
; 0000 0085     //display5();
; 0000 0086  }
	RET
; .FEND
;
;  void calculat_squ(){        //s
; 0000 0088 void calculat_squ(){
_calculat_squ:
; .FSTART _calculat_squ
; 0000 0089   if(a<0){
	LDS  R26,_a+3
	TST  R26
	BRPL _0x3E
; 0000 008A     may_error();
	RCALL _may_error
; 0000 008B    }else{
	RJMP _0x3F
_0x3E:
; 0000 008C     ans=sqrt(a);
	CALL SUBOPT_0x11
	CALL _sqrt
	CALL SUBOPT_0xD
; 0000 008D     display3(0xE8); //E8 on datasheet LCD is code signe square
	LDI  R26,LOW(232)
	RCALL _display3
; 0000 008E    }
_0x3F:
; 0000 008F     //display5();
; 0000 0090  }
	RET
; .FEND
;
;  void inc_memory(){           //i
; 0000 0092 void inc_memory(){
_inc_memory:
; .FSTART _inc_memory
; 0000 0093   m+=ans;
	CALL SUBOPT_0x2
	LDS  R26,_m
	LDS  R27,_m+1
	LDS  R24,_m+2
	LDS  R25,_m+3
	CALL __ADDF12
	CALL SUBOPT_0x12
; 0000 0094   display4(m);
	RJMP _0x20C0009
; 0000 0095  // display5(M2);
; 0000 0096  }
; .FEND
;
; void dec_memory(){             //d
; 0000 0098 void dec_memory(){
_dec_memory:
; .FSTART _dec_memory
; 0000 0099   m-=ans;
	LDS  R26,_ans
	LDS  R27,_ans+1
	LDS  R24,_ans+2
	LDS  R25,_ans+3
	LDS  R30,_m
	LDS  R31,_m+1
	LDS  R22,_m+2
	LDS  R23,_m+3
	CALL __SUBF12
	CALL SUBOPT_0x12
; 0000 009A   display4(m);
	RJMP _0x20C0009
; 0000 009B  // display5(M2);
; 0000 009C  }
; .FEND
;
; void calculat_percent(){         //%
; 0000 009E void calculat_percent(){
_calculat_percent:
; .FSTART _calculat_percent
; 0000 009F  //  b=input_digit();
; 0000 00A0    ans=(a/100);
	CALL SUBOPT_0x11
	__GETD1N 0x42C80000
	CALL __DIVF21
_0x20C000A:
	STS  _ans,R30
	STS  _ans+1,R31
	STS  _ans+2,R22
	STS  _ans+3,R23
; 0000 00A1    display2();
	RCALL _display2
; 0000 00A2    //display5();
; 0000 00A3  }
	RET
; .FEND
;
; void memory_clear(){      //m
; 0000 00A5 void memory_clear(){
_memory_clear:
; .FSTART _memory_clear
; 0000 00A6   m=0;
	LDI  R30,LOW(0)
	STS  _m,R30
	STS  _m+1,R30
	STS  _m+2,R30
	STS  _m+3,R30
; 0000 00A7   display4(m);
_0x20C0009:
	LDS  R26,_m
	LDS  R27,_m+1
	LDS  R24,_m+2
	LDS  R25,_m+3
	RCALL _display4
; 0000 00A8  // display5(M2);
; 0000 00A9  }
	RET
; .FEND
;
;
; void main(void){
; 0000 00AC void main(void){
_main:
; .FSTART _main
; 0000 00AD     lcd_init(20);
	LDI  R26,LOW(20)
	CALL _lcd_init
; 0000 00AE     clear_var();
	RCALL _clear_var
; 0000 00AF 
; 0000 00B0    while (1){
_0x40:
; 0000 00B1     a=input_digit();
	RCALL _input_digit
	CALL SUBOPT_0xE
; 0000 00B2     last_op=op;
	MOV  R4,R5
; 0000 00B3 
; 0000 00B4      switch(op){
	MOV  R30,R5
	LDI  R31,0
; 0000 00B5        case '=':
	CPI  R30,LOW(0x3D)
	LDI  R26,HIGH(0x3D)
	CPC  R31,R26
	BRNE _0x46
; 0000 00B6        equal();
	RCALL _equal
; 0000 00B7        break;
	RJMP _0x45
; 0000 00B8 
; 0000 00B9        case 'c':
_0x46:
	CPI  R30,LOW(0x63)
	LDI  R26,HIGH(0x63)
	CPC  R31,R26
	BRNE _0x47
; 0000 00BA        clear_var();
	RCALL _clear_var
; 0000 00BB        break;
	RJMP _0x45
; 0000 00BC 
; 0000 00BD        case '+':
_0x47:
	CPI  R30,LOW(0x2B)
	LDI  R26,HIGH(0x2B)
	CPC  R31,R26
	BRNE _0x48
; 0000 00BE        calculat_add();
	RCALL _calculat_add
; 0000 00BF        break;
	RJMP _0x45
; 0000 00C0 
; 0000 00C1        case '-':
_0x48:
	CPI  R30,LOW(0x2D)
	LDI  R26,HIGH(0x2D)
	CPC  R31,R26
	BRNE _0x49
; 0000 00C2        calculat_min();
	RCALL _calculat_min
; 0000 00C3        break;
	RJMP _0x45
; 0000 00C4 
; 0000 00C5        case '*':
_0x49:
	CPI  R30,LOW(0x2A)
	LDI  R26,HIGH(0x2A)
	CPC  R31,R26
	BRNE _0x4A
; 0000 00C6        calculat_mul();
	RCALL _calculat_mul
; 0000 00C7        break;
	RJMP _0x45
; 0000 00C8 
; 0000 00C9        case '/':
_0x4A:
	CPI  R30,LOW(0x2F)
	LDI  R26,HIGH(0x2F)
	CPC  R31,R26
	BRNE _0x4B
; 0000 00CA        calculat_div();
	RCALL _calculat_div
; 0000 00CB        break;
	RJMP _0x45
; 0000 00CC 
; 0000 00CD        case 's': //square
_0x4B:
	CPI  R30,LOW(0x73)
	LDI  R26,HIGH(0x73)
	CPC  R31,R26
	BRNE _0x4C
; 0000 00CE        calculat_squ();
	RCALL _calculat_squ
; 0000 00CF        break;
	RJMP _0x45
; 0000 00D0 
; 0000 00D1        case 'i': //increment memory
_0x4C:
	CPI  R30,LOW(0x69)
	LDI  R26,HIGH(0x69)
	CPC  R31,R26
	BRNE _0x4D
; 0000 00D2        inc_memory();
	RCALL _inc_memory
; 0000 00D3        break;
	RJMP _0x45
; 0000 00D4 
; 0000 00D5        case 'd': //decrement memory
_0x4D:
	CPI  R30,LOW(0x64)
	LDI  R26,HIGH(0x64)
	CPC  R31,R26
	BRNE _0x4E
; 0000 00D6        dec_memory();
	RCALL _dec_memory
; 0000 00D7        break;
	RJMP _0x45
; 0000 00D8 
; 0000 00D9        case 'm': //show memory
_0x4E:
	CPI  R30,LOW(0x6D)
	LDI  R26,HIGH(0x6D)
	CPC  R31,R26
	BRNE _0x4F
; 0000 00DA        memory_clear();
	RCALL _memory_clear
; 0000 00DB        break;
	RJMP _0x45
; 0000 00DC 
; 0000 00DD        case '%': //percent
_0x4F:
	CPI  R30,LOW(0x25)
	LDI  R26,HIGH(0x25)
	CPC  R31,R26
	BRNE _0x45
; 0000 00DE        calculat_percent();
	RCALL _calculat_percent
; 0000 00DF        break;
; 0000 00E0      }
_0x45:
; 0000 00E1      op=0;
	CLR  R5
; 0000 00E2    }
	RJMP _0x40
; 0000 00E3  }
_0x51:
	RJMP _0x51
; .FEND
    .equ __lcd_direction=__lcd_port-1
    .equ __lcd_pin=__lcd_port-2
    .equ __lcd_rs=0
    .equ __lcd_rd=1
    .equ __lcd_enable=2
    .equ __lcd_busy_flag=7

	.DSEG

	.CSEG
__lcd_delay_G100:
; .FSTART __lcd_delay_G100
    ldi   r31,15
__lcd_delay0:
    dec   r31
    brne  __lcd_delay0
	RET
; .FEND
__lcd_ready:
; .FSTART __lcd_ready
    in    r26,__lcd_direction
    andi  r26,0xf                 ;set as input
    out   __lcd_direction,r26
    sbi   __lcd_port,__lcd_rd     ;RD=1
    cbi   __lcd_port,__lcd_rs     ;RS=0
__lcd_busy:
	RCALL __lcd_delay_G100
    sbi   __lcd_port,__lcd_enable ;EN=1
	RCALL __lcd_delay_G100
    in    r26,__lcd_pin
    cbi   __lcd_port,__lcd_enable ;EN=0
	RCALL __lcd_delay_G100
    sbi   __lcd_port,__lcd_enable ;EN=1
	RCALL __lcd_delay_G100
    cbi   __lcd_port,__lcd_enable ;EN=0
    sbrc  r26,__lcd_busy_flag
    rjmp  __lcd_busy
	RET
; .FEND
__lcd_write_nibble_G100:
; .FSTART __lcd_write_nibble_G100
    andi  r26,0xf0
    or    r26,r27
    out   __lcd_port,r26          ;write
    sbi   __lcd_port,__lcd_enable ;EN=1
	CALL __lcd_delay_G100
    cbi   __lcd_port,__lcd_enable ;EN=0
	CALL __lcd_delay_G100
	RET
; .FEND
__lcd_write_data:
; .FSTART __lcd_write_data
	ST   -Y,R26
    cbi  __lcd_port,__lcd_rd 	  ;RD=0
    in    r26,__lcd_direction
    ori   r26,0xf0 | (1<<__lcd_rs) | (1<<__lcd_rd) | (1<<__lcd_enable) ;set as output
    out   __lcd_direction,r26
    in    r27,__lcd_port
    andi  r27,0xf
    ld    r26,y
	RCALL __lcd_write_nibble_G100
    ld    r26,y
    swap  r26
	RCALL __lcd_write_nibble_G100
    sbi   __lcd_port,__lcd_rd     ;RD=1
	JMP  _0x20C0006
; .FEND
_lcd_write_byte:
; .FSTART _lcd_write_byte
	ST   -Y,R26
	CALL __lcd_ready
	LDD  R26,Y+1
	CALL SUBOPT_0x13
    sbi   __lcd_port,__lcd_rs     ;RS=1
	LD   R26,Y
	RCALL __lcd_write_data
	RJMP _0x20C0008
; .FEND
__lcd_read_nibble_G100:
; .FSTART __lcd_read_nibble_G100
    sbi   __lcd_port,__lcd_enable ;EN=1
	CALL __lcd_delay_G100
    in    r30,__lcd_pin           ;read
    cbi   __lcd_port,__lcd_enable ;EN=0
	CALL __lcd_delay_G100
    andi  r30,0xf0
	RET
; .FEND
_lcd_read_byte0_G100:
; .FSTART _lcd_read_byte0_G100
	CALL __lcd_delay_G100
	RCALL __lcd_read_nibble_G100
    mov   r26,r30
	RCALL __lcd_read_nibble_G100
    cbi   __lcd_port,__lcd_rd     ;RD=0
    swap  r30
    or    r30,r26
	RET
; .FEND
_lcd_gotoxy:
; .FSTART _lcd_gotoxy
	ST   -Y,R26
	CALL __lcd_ready
	LD   R30,Y
	LDI  R31,0
	SUBI R30,LOW(-__base_y_G100)
	SBCI R31,HIGH(-__base_y_G100)
	LD   R30,Z
	LDD  R26,Y+1
	ADD  R26,R30
	CALL __lcd_write_data
	LDD  R6,Y+1
	LDD  R9,Y+0
_0x20C0008:
	ADIW R28,2
	RET
; .FEND
_lcd_clear:
; .FSTART _lcd_clear
	CALL __lcd_ready
	LDI  R26,LOW(2)
	CALL SUBOPT_0x13
	LDI  R26,LOW(12)
	CALL SUBOPT_0x13
	LDI  R26,LOW(1)
	CALL __lcd_write_data
	LDI  R30,LOW(0)
	MOV  R9,R30
	MOV  R6,R30
	RET
; .FEND
_lcd_putchar:
; .FSTART _lcd_putchar
	ST   -Y,R26
    push r30
    push r31
    ld   r26,y
    set
    cpi  r26,10
    breq __lcd_putchar1
    clt
	CP   R6,R8
	BRLO _0x2000004
	__lcd_putchar1:
	INC  R9
	LDI  R30,LOW(0)
	ST   -Y,R30
	MOV  R26,R9
	RCALL _lcd_gotoxy
	brts __lcd_putchar0
_0x2000004:
	INC  R6
    rcall __lcd_ready
    sbi  __lcd_port,__lcd_rs ;RS=1
	LD   R26,Y
	CALL __lcd_write_data
__lcd_putchar0:
    pop  r31
    pop  r30
	JMP  _0x20C0006
; .FEND
_lcd_puts:
; .FSTART _lcd_puts
	ST   -Y,R27
	ST   -Y,R26
	ST   -Y,R17
_0x2000005:
	LDD  R26,Y+1
	LDD  R27,Y+1+1
	LD   R30,X+
	STD  Y+1,R26
	STD  Y+1+1,R27
	MOV  R17,R30
	CPI  R30,0
	BREQ _0x2000007
	MOV  R26,R17
	RCALL _lcd_putchar
	RJMP _0x2000005
_0x2000007:
	RJMP _0x20C0007
; .FEND
_lcd_putsf:
; .FSTART _lcd_putsf
	ST   -Y,R27
	ST   -Y,R26
	ST   -Y,R17
_0x2000008:
	LDD  R30,Y+1
	LDD  R31,Y+1+1
	ADIW R30,1
	STD  Y+1,R30
	STD  Y+1+1,R31
	SBIW R30,1
	LPM  R30,Z
	MOV  R17,R30
	CPI  R30,0
	BREQ _0x200000A
	MOV  R26,R17
	RCALL _lcd_putchar
	RJMP _0x2000008
_0x200000A:
_0x20C0007:
	LDD  R17,Y+0
	ADIW R28,3
	RET
; .FEND
__long_delay_G100:
; .FSTART __long_delay_G100
    clr   r26
    clr   r27
__long_delay0:
    sbiw  r26,1         ;2 cycles
    brne  __long_delay0 ;2 cycles
	RET
; .FEND
__lcd_init_write_G100:
; .FSTART __lcd_init_write_G100
	ST   -Y,R26
    cbi  __lcd_port,__lcd_rd 	  ;RD=0
    in    r26,__lcd_direction
    ori   r26,0xf7                ;set as output
    out   __lcd_direction,r26
    in    r27,__lcd_port
    andi  r27,0xf
    ld    r26,y
	CALL __lcd_write_nibble_G100
    sbi   __lcd_port,__lcd_rd     ;RD=1
	RJMP _0x20C0006
; .FEND
_lcd_init:
; .FSTART _lcd_init
	ST   -Y,R26
    cbi   __lcd_port,__lcd_enable ;EN=0
    cbi   __lcd_port,__lcd_rs     ;RS=0
	LDD  R8,Y+0
	LD   R30,Y
	SUBI R30,-LOW(128)
	__PUTB1MN __base_y_G100,2
	LD   R30,Y
	SUBI R30,-LOW(192)
	__PUTB1MN __base_y_G100,3
	CALL SUBOPT_0x14
	CALL SUBOPT_0x14
	CALL SUBOPT_0x14
	RCALL __long_delay_G100
	LDI  R26,LOW(32)
	RCALL __lcd_init_write_G100
	RCALL __long_delay_G100
	LDI  R26,LOW(40)
	CALL SUBOPT_0x15
	LDI  R26,LOW(4)
	CALL SUBOPT_0x15
	LDI  R26,LOW(133)
	CALL SUBOPT_0x15
    in    r26,__lcd_direction
    andi  r26,0xf                 ;set as input
    out   __lcd_direction,r26
    sbi   __lcd_port,__lcd_rd     ;RD=1
	CALL _lcd_read_byte0_G100
	CPI  R30,LOW(0x5)
	BREQ _0x200000B
	LDI  R30,LOW(0)
	RJMP _0x20C0006
_0x200000B:
	CALL __lcd_ready
	LDI  R26,LOW(6)
	CALL __lcd_write_data
	CALL _lcd_clear
	LDI  R30,LOW(1)
_0x20C0006:
	ADIW R28,1
	RET
; .FEND
	#ifndef __SLEEP_DEFINED__
	#define __SLEEP_DEFINED__
	.EQU __se_bit=0x40
	.EQU __sm_mask=0xB0
	.EQU __sm_powerdown=0x20
	.EQU __sm_powersave=0x30
	.EQU __sm_standby=0xA0
	.EQU __sm_ext_standby=0xB0
	.EQU __sm_adc_noise_red=0x10
	.SET power_ctrl_reg=mcucr
	#endif

	.CSEG
_put_buff_G101:
; .FSTART _put_buff_G101
	ST   -Y,R27
	ST   -Y,R26
	ST   -Y,R17
	ST   -Y,R16
	LDD  R26,Y+2
	LDD  R27,Y+2+1
	ADIW R26,2
	CALL __GETW1P
	SBIW R30,0
	BREQ _0x2020010
	LDD  R26,Y+2
	LDD  R27,Y+2+1
	ADIW R26,4
	CALL __GETW1P
	MOVW R16,R30
	SBIW R30,0
	BREQ _0x2020012
	__CPWRN 16,17,2
	BRLO _0x2020013
	MOVW R30,R16
	SBIW R30,1
	MOVW R16,R30
	__PUTW1SNS 2,4
_0x2020012:
	LDD  R26,Y+2
	LDD  R27,Y+2+1
	ADIW R26,2
	CALL SUBOPT_0x16
	SBIW R30,1
	LDD  R26,Y+4
	STD  Z+0,R26
_0x2020013:
	LDD  R26,Y+2
	LDD  R27,Y+2+1
	CALL __GETW1P
	TST  R31
	BRMI _0x2020014
	CALL SUBOPT_0x16
_0x2020014:
	RJMP _0x2020015
_0x2020010:
	LDD  R26,Y+2
	LDD  R27,Y+2+1
	LDI  R30,LOW(65535)
	LDI  R31,HIGH(65535)
	ST   X+,R30
	ST   X,R31
_0x2020015:
	LDD  R17,Y+1
	LDD  R16,Y+0
	ADIW R28,5
	RET
; .FEND
__ftoe_G101:
; .FSTART __ftoe_G101
	CALL SUBOPT_0x17
	LDI  R30,LOW(128)
	STD  Y+2,R30
	LDI  R30,LOW(63)
	STD  Y+3,R30
	CALL __SAVELOCR4
	LDD  R30,Y+14
	LDD  R31,Y+14+1
	CPI  R30,LOW(0xFFFF)
	LDI  R26,HIGH(0xFFFF)
	CPC  R31,R26
	BRNE _0x2020019
	LDD  R30,Y+8
	LDD  R31,Y+8+1
	ST   -Y,R31
	ST   -Y,R30
	__POINTW2FN _0x2020000,0
	CALL _strcpyf
	RJMP _0x20C0005
_0x2020019:
	CPI  R30,LOW(0x7FFF)
	LDI  R26,HIGH(0x7FFF)
	CPC  R31,R26
	BRNE _0x2020018
	LDD  R30,Y+8
	LDD  R31,Y+8+1
	ST   -Y,R31
	ST   -Y,R30
	__POINTW2FN _0x2020000,1
	CALL _strcpyf
	RJMP _0x20C0005
_0x2020018:
	LDD  R26,Y+11
	CPI  R26,LOW(0x7)
	BRLO _0x202001B
	LDI  R30,LOW(6)
	STD  Y+11,R30
_0x202001B:
	LDD  R17,Y+11
_0x202001C:
	MOV  R30,R17
	SUBI R17,1
	CPI  R30,0
	BREQ _0x202001E
	CALL SUBOPT_0x18
	RJMP _0x202001C
_0x202001E:
	__GETD1S 12
	CALL __CPD10
	BRNE _0x202001F
	LDI  R19,LOW(0)
	CALL SUBOPT_0x18
	RJMP _0x2020020
_0x202001F:
	LDD  R19,Y+11
	CALL SUBOPT_0x19
	BREQ PC+2
	BRCC PC+2
	RJMP _0x2020021
	CALL SUBOPT_0x18
_0x2020022:
	CALL SUBOPT_0x19
	BRLO _0x2020024
	CALL SUBOPT_0x1A
	CALL SUBOPT_0x1B
	RJMP _0x2020022
_0x2020024:
	RJMP _0x2020025
_0x2020021:
_0x2020026:
	CALL SUBOPT_0x19
	BRSH _0x2020028
	CALL SUBOPT_0x1A
	CALL SUBOPT_0x1C
	CALL SUBOPT_0x1D
	SUBI R19,LOW(1)
	RJMP _0x2020026
_0x2020028:
	CALL SUBOPT_0x18
_0x2020025:
	__GETD1S 12
	CALL SUBOPT_0x1E
	CALL SUBOPT_0x1D
	CALL SUBOPT_0x19
	BRLO _0x2020029
	CALL SUBOPT_0x1A
	CALL SUBOPT_0x1B
_0x2020029:
_0x2020020:
	LDI  R17,LOW(0)
_0x202002A:
	LDD  R30,Y+11
	CP   R30,R17
	BRLO _0x202002C
	__GETD2S 4
	CALL SUBOPT_0x1F
	CALL SUBOPT_0x1E
	MOVW R26,R30
	MOVW R24,R22
	CALL _floor
	__PUTD1S 4
	CALL SUBOPT_0xC
	CALL SUBOPT_0x1A
	CALL __DIVF21
	CALL __CFD1U
	MOV  R16,R30
	CALL SUBOPT_0x20
	CALL SUBOPT_0x21
	CLR  R31
	CLR  R22
	CLR  R23
	CALL __CDF1
	__GETD2S 4
	CALL __MULF12
	CALL SUBOPT_0x1A
	CALL SUBOPT_0x22
	CALL SUBOPT_0x1D
	MOV  R30,R17
	SUBI R17,-1
	CPI  R30,0
	BRNE _0x202002A
	CALL SUBOPT_0x20
	LDI  R30,LOW(46)
	ST   X,R30
	RJMP _0x202002A
_0x202002C:
	CALL SUBOPT_0x23
	SBIW R30,1
	LDD  R26,Y+10
	STD  Z+0,R26
	CPI  R19,0
	BRGE _0x202002E
	NEG  R19
	LDD  R26,Y+8
	LDD  R27,Y+8+1
	LDI  R30,LOW(45)
	RJMP _0x2020113
_0x202002E:
	LDD  R26,Y+8
	LDD  R27,Y+8+1
	LDI  R30,LOW(43)
_0x2020113:
	ST   X,R30
	CALL SUBOPT_0x23
	CALL SUBOPT_0x23
	SBIW R30,1
	MOVW R22,R30
	MOV  R26,R19
	LDI  R30,LOW(10)
	CALL __DIVB21
	SUBI R30,-LOW(48)
	MOVW R26,R22
	ST   X,R30
	CALL SUBOPT_0x23
	SBIW R30,1
	MOVW R22,R30
	MOV  R26,R19
	LDI  R30,LOW(10)
	CALL __MODB21
	SUBI R30,-LOW(48)
	MOVW R26,R22
	ST   X,R30
	LDD  R26,Y+8
	LDD  R27,Y+8+1
	LDI  R30,LOW(0)
	ST   X,R30
_0x20C0005:
	CALL __LOADLOCR4
	ADIW R28,16
	RET
; .FEND
__print_G101:
; .FSTART __print_G101
	ST   -Y,R27
	ST   -Y,R26
	SBIW R28,63
	SBIW R28,17
	CALL __SAVELOCR6
	LDI  R17,0
	__GETW1SX 88
	STD  Y+8,R30
	STD  Y+8+1,R31
	__GETW1SX 86
	STD  Y+6,R30
	STD  Y+6+1,R31
	LDD  R26,Y+6
	LDD  R27,Y+6+1
	LDI  R30,LOW(0)
	LDI  R31,HIGH(0)
	ST   X+,R30
	ST   X,R31
_0x2020030:
	MOVW R26,R28
	SUBI R26,LOW(-(92))
	SBCI R27,HIGH(-(92))
	CALL SUBOPT_0x16
	SBIW R30,1
	LPM  R30,Z
	MOV  R18,R30
	CPI  R30,0
	BRNE PC+2
	RJMP _0x2020032
	MOV  R30,R17
	CPI  R30,0
	BRNE _0x2020036
	CPI  R18,37
	BRNE _0x2020037
	LDI  R17,LOW(1)
	RJMP _0x2020038
_0x2020037:
	CALL SUBOPT_0x24
_0x2020038:
	RJMP _0x2020035
_0x2020036:
	CPI  R30,LOW(0x1)
	BRNE _0x2020039
	CPI  R18,37
	BRNE _0x202003A
	CALL SUBOPT_0x24
	RJMP _0x2020114
_0x202003A:
	LDI  R17,LOW(2)
	LDI  R30,LOW(0)
	STD  Y+21,R30
	LDI  R16,LOW(0)
	CPI  R18,45
	BRNE _0x202003B
	LDI  R16,LOW(1)
	RJMP _0x2020035
_0x202003B:
	CPI  R18,43
	BRNE _0x202003C
	LDI  R30,LOW(43)
	STD  Y+21,R30
	RJMP _0x2020035
_0x202003C:
	CPI  R18,32
	BRNE _0x202003D
	LDI  R30,LOW(32)
	STD  Y+21,R30
	RJMP _0x2020035
_0x202003D:
	RJMP _0x202003E
_0x2020039:
	CPI  R30,LOW(0x2)
	BRNE _0x202003F
_0x202003E:
	LDI  R21,LOW(0)
	LDI  R17,LOW(3)
	CPI  R18,48
	BRNE _0x2020040
	ORI  R16,LOW(128)
	RJMP _0x2020035
_0x2020040:
	RJMP _0x2020041
_0x202003F:
	CPI  R30,LOW(0x3)
	BRNE _0x2020042
_0x2020041:
	CPI  R18,48
	BRLO _0x2020044
	CPI  R18,58
	BRLO _0x2020045
_0x2020044:
	RJMP _0x2020043
_0x2020045:
	LDI  R26,LOW(10)
	MUL  R21,R26
	MOV  R21,R0
	MOV  R30,R18
	SUBI R30,LOW(48)
	ADD  R21,R30
	RJMP _0x2020035
_0x2020043:
	LDI  R20,LOW(0)
	CPI  R18,46
	BRNE _0x2020046
	LDI  R17,LOW(4)
	RJMP _0x2020035
_0x2020046:
	RJMP _0x2020047
_0x2020042:
	CPI  R30,LOW(0x4)
	BRNE _0x2020049
	CPI  R18,48
	BRLO _0x202004B
	CPI  R18,58
	BRLO _0x202004C
_0x202004B:
	RJMP _0x202004A
_0x202004C:
	ORI  R16,LOW(32)
	LDI  R26,LOW(10)
	MUL  R20,R26
	MOV  R20,R0
	MOV  R30,R18
	SUBI R30,LOW(48)
	ADD  R20,R30
	RJMP _0x2020035
_0x202004A:
_0x2020047:
	CPI  R18,108
	BRNE _0x202004D
	ORI  R16,LOW(2)
	LDI  R17,LOW(5)
	RJMP _0x2020035
_0x202004D:
	RJMP _0x202004E
_0x2020049:
	CPI  R30,LOW(0x5)
	BREQ PC+2
	RJMP _0x2020035
_0x202004E:
	MOV  R30,R18
	CPI  R30,LOW(0x63)
	BRNE _0x2020053
	CALL SUBOPT_0x25
	CALL SUBOPT_0x26
	CALL SUBOPT_0x25
	LDD  R26,Z+4
	ST   -Y,R26
	CALL SUBOPT_0x27
	RJMP _0x2020054
_0x2020053:
	CPI  R30,LOW(0x45)
	BREQ _0x2020057
	CPI  R30,LOW(0x65)
	BRNE _0x2020058
_0x2020057:
	RJMP _0x2020059
_0x2020058:
	CPI  R30,LOW(0x66)
	BREQ PC+2
	RJMP _0x202005A
_0x2020059:
	MOVW R30,R28
	ADIW R30,22
	STD  Y+14,R30
	STD  Y+14+1,R31
	CALL SUBOPT_0x28
	CALL __GETD1P
	CALL SUBOPT_0x0
	CALL SUBOPT_0x29
	LDD  R26,Y+13
	TST  R26
	BRMI _0x202005B
	LDD  R26,Y+21
	CPI  R26,LOW(0x2B)
	BREQ _0x202005D
	CPI  R26,LOW(0x20)
	BREQ _0x202005F
	RJMP _0x2020060
_0x202005B:
	CALL SUBOPT_0x7
	CALL __ANEGF1
	CALL SUBOPT_0x0
	LDI  R30,LOW(45)
	STD  Y+21,R30
_0x202005D:
	SBRS R16,7
	RJMP _0x2020061
	LDD  R30,Y+21
	ST   -Y,R30
	CALL SUBOPT_0x27
	RJMP _0x2020062
_0x2020061:
_0x202005F:
	LDD  R30,Y+14
	LDD  R31,Y+14+1
	ADIW R30,1
	STD  Y+14,R30
	STD  Y+14+1,R31
	SBIW R30,1
	LDD  R26,Y+21
	STD  Z+0,R26
_0x2020062:
_0x2020060:
	SBRS R16,5
	LDI  R20,LOW(6)
	CPI  R18,102
	BRNE _0x2020064
	CALL SUBOPT_0x7
	CALL __PUTPARD1
	ST   -Y,R20
	LDD  R26,Y+19
	LDD  R27,Y+19+1
	CALL _ftoa
	RJMP _0x2020065
_0x2020064:
	CALL SUBOPT_0x7
	CALL __PUTPARD1
	ST   -Y,R20
	ST   -Y,R18
	LDD  R26,Y+20
	LDD  R27,Y+20+1
	RCALL __ftoe_G101
_0x2020065:
	MOVW R30,R28
	ADIW R30,22
	CALL SUBOPT_0x2A
	RJMP _0x2020066
_0x202005A:
	CPI  R30,LOW(0x73)
	BRNE _0x2020068
	CALL SUBOPT_0x29
	CALL SUBOPT_0x2B
	CALL SUBOPT_0x2A
	RJMP _0x2020069
_0x2020068:
	CPI  R30,LOW(0x70)
	BRNE _0x202006B
	CALL SUBOPT_0x29
	CALL SUBOPT_0x2B
	STD  Y+14,R30
	STD  Y+14+1,R31
	LDD  R26,Y+14
	LDD  R27,Y+14+1
	CALL _strlenf
	MOV  R17,R30
	ORI  R16,LOW(8)
_0x2020069:
	ANDI R16,LOW(127)
	CPI  R20,0
	BREQ _0x202006D
	CP   R20,R17
	BRLO _0x202006E
_0x202006D:
	RJMP _0x202006C
_0x202006E:
	MOV  R17,R20
_0x202006C:
_0x2020066:
	LDI  R20,LOW(0)
	LDI  R30,LOW(0)
	STD  Y+20,R30
	LDI  R19,LOW(0)
	RJMP _0x202006F
_0x202006B:
	CPI  R30,LOW(0x64)
	BREQ _0x2020072
	CPI  R30,LOW(0x69)
	BRNE _0x2020073
_0x2020072:
	ORI  R16,LOW(4)
	RJMP _0x2020074
_0x2020073:
	CPI  R30,LOW(0x75)
	BRNE _0x2020075
_0x2020074:
	LDI  R30,LOW(10)
	STD  Y+20,R30
	SBRS R16,1
	RJMP _0x2020076
	__GETD1N 0x3B9ACA00
	CALL SUBOPT_0x2C
	LDI  R17,LOW(10)
	RJMP _0x2020077
_0x2020076:
	__GETD1N 0x2710
	CALL SUBOPT_0x2C
	LDI  R17,LOW(5)
	RJMP _0x2020077
_0x2020075:
	CPI  R30,LOW(0x58)
	BRNE _0x2020079
	ORI  R16,LOW(8)
	RJMP _0x202007A
_0x2020079:
	CPI  R30,LOW(0x78)
	BREQ PC+2
	RJMP _0x20200B8
_0x202007A:
	LDI  R30,LOW(16)
	STD  Y+20,R30
	SBRS R16,1
	RJMP _0x202007C
	__GETD1N 0x10000000
	CALL SUBOPT_0x2C
	LDI  R17,LOW(8)
	RJMP _0x2020077
_0x202007C:
	__GETD1N 0x1000
	CALL SUBOPT_0x2C
	LDI  R17,LOW(4)
_0x2020077:
	CPI  R20,0
	BREQ _0x202007D
	ANDI R16,LOW(127)
	RJMP _0x202007E
_0x202007D:
	LDI  R20,LOW(1)
_0x202007E:
	SBRS R16,1
	RJMP _0x202007F
	CALL SUBOPT_0x29
	CALL SUBOPT_0x28
	ADIW R26,4
	CALL __GETD1P
	RJMP _0x2020115
_0x202007F:
	SBRS R16,2
	RJMP _0x2020081
	CALL SUBOPT_0x29
	CALL SUBOPT_0x2B
	CALL __CWD1
	RJMP _0x2020115
_0x2020081:
	CALL SUBOPT_0x29
	CALL SUBOPT_0x2B
	CLR  R22
	CLR  R23
_0x2020115:
	__PUTD1S 10
	SBRS R16,2
	RJMP _0x2020083
	LDD  R26,Y+13
	TST  R26
	BRPL _0x2020084
	CALL SUBOPT_0x7
	CALL __ANEGD1
	CALL SUBOPT_0x0
	LDI  R30,LOW(45)
	STD  Y+21,R30
_0x2020084:
	LDD  R30,Y+21
	CPI  R30,0
	BREQ _0x2020085
	SUBI R17,-LOW(1)
	SUBI R20,-LOW(1)
	RJMP _0x2020086
_0x2020085:
	ANDI R16,LOW(251)
_0x2020086:
_0x2020083:
	MOV  R19,R20
_0x202006F:
	SBRC R16,0
	RJMP _0x2020087
_0x2020088:
	CP   R17,R21
	BRSH _0x202008B
	CP   R19,R21
	BRLO _0x202008C
_0x202008B:
	RJMP _0x202008A
_0x202008C:
	SBRS R16,7
	RJMP _0x202008D
	SBRS R16,2
	RJMP _0x202008E
	ANDI R16,LOW(251)
	LDD  R18,Y+21
	SUBI R17,LOW(1)
	RJMP _0x202008F
_0x202008E:
	LDI  R18,LOW(48)
_0x202008F:
	RJMP _0x2020090
_0x202008D:
	LDI  R18,LOW(32)
_0x2020090:
	CALL SUBOPT_0x24
	SUBI R21,LOW(1)
	RJMP _0x2020088
_0x202008A:
_0x2020087:
_0x2020091:
	CP   R17,R20
	BRSH _0x2020093
	ORI  R16,LOW(16)
	SBRS R16,2
	RJMP _0x2020094
	CALL SUBOPT_0x2D
	BREQ _0x2020095
	SUBI R21,LOW(1)
_0x2020095:
	SUBI R17,LOW(1)
	SUBI R20,LOW(1)
_0x2020094:
	LDI  R30,LOW(48)
	ST   -Y,R30
	CALL SUBOPT_0x27
	CPI  R21,0
	BREQ _0x2020096
	SUBI R21,LOW(1)
_0x2020096:
	SUBI R20,LOW(1)
	RJMP _0x2020091
_0x2020093:
	MOV  R19,R17
	LDD  R30,Y+20
	CPI  R30,0
	BRNE _0x2020097
_0x2020098:
	CPI  R19,0
	BREQ _0x202009A
	SBRS R16,3
	RJMP _0x202009B
	LDD  R30,Y+14
	LDD  R31,Y+14+1
	LPM  R18,Z+
	STD  Y+14,R30
	STD  Y+14+1,R31
	RJMP _0x202009C
_0x202009B:
	LDD  R26,Y+14
	LDD  R27,Y+14+1
	LD   R18,X+
	STD  Y+14,R26
	STD  Y+14+1,R27
_0x202009C:
	CALL SUBOPT_0x24
	CPI  R21,0
	BREQ _0x202009D
	SUBI R21,LOW(1)
_0x202009D:
	SUBI R19,LOW(1)
	RJMP _0x2020098
_0x202009A:
	RJMP _0x202009E
_0x2020097:
_0x20200A0:
	CALL SUBOPT_0x2E
	CALL __DIVD21U
	MOV  R18,R30
	CPI  R18,10
	BRLO _0x20200A2
	SBRS R16,3
	RJMP _0x20200A3
	SUBI R18,-LOW(55)
	RJMP _0x20200A4
_0x20200A3:
	SUBI R18,-LOW(87)
_0x20200A4:
	RJMP _0x20200A5
_0x20200A2:
	SUBI R18,-LOW(48)
_0x20200A5:
	SBRC R16,4
	RJMP _0x20200A7
	CPI  R18,49
	BRSH _0x20200A9
	__GETD2S 16
	__CPD2N 0x1
	BRNE _0x20200A8
_0x20200A9:
	RJMP _0x20200AB
_0x20200A8:
	CP   R20,R19
	BRSH _0x2020116
	CP   R21,R19
	BRLO _0x20200AE
	SBRS R16,0
	RJMP _0x20200AF
_0x20200AE:
	RJMP _0x20200AD
_0x20200AF:
	LDI  R18,LOW(32)
	SBRS R16,7
	RJMP _0x20200B0
_0x2020116:
	LDI  R18,LOW(48)
_0x20200AB:
	ORI  R16,LOW(16)
	SBRS R16,2
	RJMP _0x20200B1
	CALL SUBOPT_0x2D
	BREQ _0x20200B2
	SUBI R21,LOW(1)
_0x20200B2:
_0x20200B1:
_0x20200B0:
_0x20200A7:
	CALL SUBOPT_0x24
	CPI  R21,0
	BREQ _0x20200B3
	SUBI R21,LOW(1)
_0x20200B3:
_0x20200AD:
	SUBI R19,LOW(1)
	CALL SUBOPT_0x2E
	CALL __MODD21U
	CALL SUBOPT_0x0
	LDD  R30,Y+20
	__GETD2S 16
	CLR  R31
	CLR  R22
	CLR  R23
	CALL __DIVD21U
	CALL SUBOPT_0x2C
	__GETD1S 16
	CALL __CPD10
	BREQ _0x20200A1
	RJMP _0x20200A0
_0x20200A1:
_0x202009E:
	SBRS R16,0
	RJMP _0x20200B4
_0x20200B5:
	CPI  R21,0
	BREQ _0x20200B7
	SUBI R21,LOW(1)
	LDI  R30,LOW(32)
	ST   -Y,R30
	CALL SUBOPT_0x27
	RJMP _0x20200B5
_0x20200B7:
_0x20200B4:
_0x20200B8:
_0x2020054:
_0x2020114:
	LDI  R17,LOW(0)
_0x2020035:
	RJMP _0x2020030
_0x2020032:
	LDD  R26,Y+6
	LDD  R27,Y+6+1
	CALL __GETW1P
	CALL __LOADLOCR6
	ADIW R28,63
	ADIW R28,31
	RET
; .FEND
_sprintf:
; .FSTART _sprintf
	PUSH R15
	MOV  R15,R24
	SBIW R28,6
	CALL __SAVELOCR4
	CALL SUBOPT_0x2F
	SBIW R30,0
	BRNE _0x20200B9
	LDI  R30,LOW(65535)
	LDI  R31,HIGH(65535)
	RJMP _0x20C0004
_0x20200B9:
	MOVW R26,R28
	ADIW R26,6
	CALL __ADDW2R15
	MOVW R16,R26
	CALL SUBOPT_0x2F
	STD  Y+6,R30
	STD  Y+6+1,R31
	LDI  R30,LOW(0)
	STD  Y+8,R30
	STD  Y+8+1,R30
	MOVW R26,R28
	ADIW R26,10
	CALL __ADDW2R15
	CALL __GETW1P
	ST   -Y,R31
	ST   -Y,R30
	ST   -Y,R17
	ST   -Y,R16
	LDI  R30,LOW(_put_buff_G101)
	LDI  R31,HIGH(_put_buff_G101)
	ST   -Y,R31
	ST   -Y,R30
	MOVW R26,R28
	ADIW R26,10
	RCALL __print_G101
	MOVW R18,R30
	LDD  R26,Y+6
	LDD  R27,Y+6+1
	LDI  R30,LOW(0)
	ST   X,R30
	MOVW R30,R18
_0x20C0004:
	CALL __LOADLOCR4
	ADIW R28,10
	POP  R15
	RET
; .FEND

	.CSEG
_ftrunc:
; .FSTART _ftrunc
	CALL __PUTPARD2
   ldd  r23,y+3
   ldd  r22,y+2
   ldd  r31,y+1
   ld   r30,y
   bst  r23,7
   lsl  r23
   sbrc r22,7
   sbr  r23,1
   mov  r25,r23
   subi r25,0x7e
   breq __ftrunc0
   brcs __ftrunc0
   cpi  r25,24
   brsh __ftrunc1
   clr  r26
   clr  r27
   clr  r24
__ftrunc2:
   sec
   ror  r24
   ror  r27
   ror  r26
   dec  r25
   brne __ftrunc2
   and  r30,r26
   and  r31,r27
   and  r22,r24
   rjmp __ftrunc1
__ftrunc0:
   clt
   clr  r23
   clr  r30
   clr  r31
   clr  r22
__ftrunc1:
   cbr  r22,0x80
   lsr  r23
   brcc __ftrunc3
   sbr  r22,0x80
__ftrunc3:
   bld  r23,7
   ld   r26,y+
   ld   r27,y+
   ld   r24,y+
   ld   r25,y+
   cp   r30,r26
   cpc  r31,r27
   cpc  r22,r24
   cpc  r23,r25
   bst  r25,7
   ret
; .FEND
_floor:
; .FSTART _floor
	CALL __PUTPARD2
	CALL __GETD2S0
	CALL _ftrunc
	CALL __PUTD1S0
    brne __floor1
__floor0:
	CALL __GETD1S0
	RJMP _0x20C0003
__floor1:
    brtc __floor0
	CALL __GETD1S0
	__GETD2N 0x3F800000
	CALL __SUBF12
_0x20C0003:
	ADIW R28,4
	RET
; .FEND

	.CSEG

	.CSEG
_strcpyf:
; .FSTART _strcpyf
	ST   -Y,R27
	ST   -Y,R26
    ld   r30,y+
    ld   r31,y+
    ld   r26,y+
    ld   r27,y+
    movw r24,r26
strcpyf0:
	lpm  r0,z+
    st   x+,r0
    tst  r0
    brne strcpyf0
    movw r30,r24
    ret
; .FEND
_strlen:
; .FSTART _strlen
	ST   -Y,R27
	ST   -Y,R26
    ld   r26,y+
    ld   r27,y+
    clr  r30
    clr  r31
strlen0:
    ld   r22,x+
    tst  r22
    breq strlen1
    adiw r30,1
    rjmp strlen0
strlen1:
    ret
; .FEND
_strlenf:
; .FSTART _strlenf
	ST   -Y,R27
	ST   -Y,R26
    clr  r26
    clr  r27
    ld   r30,y+
    ld   r31,y+
strlenf0:
	lpm  r0,z+
    tst  r0
    breq strlenf1
    adiw r26,1
    rjmp strlenf0
strlenf1:
    movw r30,r26
    ret
; .FEND

	.CSEG
_ftoa:
; .FSTART _ftoa
	RCALL SUBOPT_0x17
	LDI  R30,LOW(0)
	STD  Y+2,R30
	LDI  R30,LOW(63)
	STD  Y+3,R30
	ST   -Y,R17
	ST   -Y,R16
	LDD  R30,Y+11
	LDD  R31,Y+11+1
	CPI  R30,LOW(0xFFFF)
	LDI  R26,HIGH(0xFFFF)
	CPC  R31,R26
	BRNE _0x20A000D
	RCALL SUBOPT_0x30
	__POINTW2FN _0x20A0000,0
	CALL _strcpyf
	RJMP _0x20C0002
_0x20A000D:
	CPI  R30,LOW(0x7FFF)
	LDI  R26,HIGH(0x7FFF)
	CPC  R31,R26
	BRNE _0x20A000C
	RCALL SUBOPT_0x30
	__POINTW2FN _0x20A0000,1
	CALL _strcpyf
	RJMP _0x20C0002
_0x20A000C:
	LDD  R26,Y+12
	TST  R26
	BRPL _0x20A000F
	__GETD1S 9
	CALL __ANEGF1
	RCALL SUBOPT_0x31
	RCALL SUBOPT_0x32
	LDI  R30,LOW(45)
	ST   X,R30
_0x20A000F:
	LDD  R26,Y+8
	CPI  R26,LOW(0x7)
	BRLO _0x20A0010
	LDI  R30,LOW(6)
	STD  Y+8,R30
_0x20A0010:
	LDD  R17,Y+8
_0x20A0011:
	MOV  R30,R17
	SUBI R17,1
	CPI  R30,0
	BREQ _0x20A0013
	RCALL SUBOPT_0x33
	RCALL SUBOPT_0x1F
	RCALL SUBOPT_0x34
	RJMP _0x20A0011
_0x20A0013:
	RCALL SUBOPT_0x35
	CALL __ADDF12
	RCALL SUBOPT_0x31
	LDI  R17,LOW(0)
	__GETD1N 0x3F800000
	RCALL SUBOPT_0x34
_0x20A0014:
	RCALL SUBOPT_0x35
	CALL __CMPF12
	BRLO _0x20A0016
	RCALL SUBOPT_0x33
	RCALL SUBOPT_0x1C
	RCALL SUBOPT_0x34
	SUBI R17,-LOW(1)
	CPI  R17,39
	BRLO _0x20A0017
	RCALL SUBOPT_0x30
	__POINTW2FN _0x20A0000,5
	CALL _strcpyf
	RJMP _0x20C0002
_0x20A0017:
	RJMP _0x20A0014
_0x20A0016:
	CPI  R17,0
	BRNE _0x20A0018
	RCALL SUBOPT_0x32
	LDI  R30,LOW(48)
	ST   X,R30
	RJMP _0x20A0019
_0x20A0018:
_0x20A001A:
	MOV  R30,R17
	SUBI R17,1
	CPI  R30,0
	BREQ _0x20A001C
	RCALL SUBOPT_0x33
	RCALL SUBOPT_0x1F
	RCALL SUBOPT_0x1E
	MOVW R26,R30
	MOVW R24,R22
	CALL _floor
	RCALL SUBOPT_0x34
	RCALL SUBOPT_0x35
	CALL __DIVF21
	CALL __CFD1U
	MOV  R16,R30
	RCALL SUBOPT_0x32
	RCALL SUBOPT_0x21
	LDI  R31,0
	RCALL SUBOPT_0x33
	CALL __CWD1
	CALL __CDF1
	CALL __MULF12
	RCALL SUBOPT_0x36
	RCALL SUBOPT_0x22
	RCALL SUBOPT_0x31
	RJMP _0x20A001A
_0x20A001C:
_0x20A0019:
	LDD  R30,Y+8
	CPI  R30,0
	BREQ _0x20C0001
	RCALL SUBOPT_0x32
	LDI  R30,LOW(46)
	ST   X,R30
_0x20A001E:
	LDD  R30,Y+8
	SUBI R30,LOW(1)
	STD  Y+8,R30
	SUBI R30,-LOW(1)
	BREQ _0x20A0020
	RCALL SUBOPT_0x36
	RCALL SUBOPT_0x1C
	RCALL SUBOPT_0x31
	__GETD1S 9
	CALL __CFD1U
	MOV  R16,R30
	RCALL SUBOPT_0x32
	RCALL SUBOPT_0x21
	LDI  R31,0
	RCALL SUBOPT_0x36
	CALL __CWD1
	CALL __CDF1
	RCALL SUBOPT_0x22
	RCALL SUBOPT_0x31
	RJMP _0x20A001E
_0x20A0020:
_0x20C0001:
	LDD  R26,Y+6
	LDD  R27,Y+6+1
	LDI  R30,LOW(0)
	ST   X,R30
_0x20C0002:
	LDD  R17,Y+1
	LDD  R16,Y+0
	ADIW R28,13
	RET
; .FEND

	.DSEG

	.CSEG

	.DSEG
_scan:
	.BYTE 0x4
_arrkey:
	.BYTE 0x18
_buffer:
	.BYTE 0x28
_ans:
	.BYTE 0x4
_a:
	.BYTE 0x4
_b:
	.BYTE 0x4
_m:
	.BYTE 0x4
_ma_error:
	.BYTE 0x9
__base_y_G100:
	.BYTE 0x4
__seed_G105:
	.BYTE 0x4

	.CSEG
;OPTIMIZER ADDED SUBROUTINE, CALLED 10 TIMES, CODE SIZE REDUCTION:15 WORDS
SUBOPT_0x0:
	__PUTD1S 10
	RET

;OPTIMIZER ADDED SUBROUTINE, CALLED 4 TIMES, CODE SIZE REDUCTION:9 WORDS
SUBOPT_0x1:
	CALL _lcd_clear
	LDI  R30,LOW(_buffer)
	LDI  R31,HIGH(_buffer)
	ST   -Y,R31
	ST   -Y,R30
	RET

;OPTIMIZER ADDED SUBROUTINE, CALLED 6 TIMES, CODE SIZE REDUCTION:27 WORDS
SUBOPT_0x2:
	LDS  R30,_ans
	LDS  R31,_ans+1
	LDS  R22,_ans+2
	LDS  R23,_ans+3
	RET

;OPTIMIZER ADDED SUBROUTINE, CALLED 2 TIMES, CODE SIZE REDUCTION:5 WORDS
SUBOPT_0x3:
	CALL __PUTPARD1
	LDI  R24,4
	CALL _sprintf
	ADIW R28,8
	LDI  R26,LOW(_buffer)
	LDI  R27,HIGH(_buffer)
	JMP  _lcd_puts

;OPTIMIZER ADDED SUBROUTINE, CALLED 2 TIMES, CODE SIZE REDUCTION:5 WORDS
SUBOPT_0x4:
	LDI  R30,LOW(0)
	ST   -Y,R30
	LDI  R26,LOW(0)
	CALL _lcd_gotoxy
	CALL __lcd_ready
	LDI  R26,LOW(15)
	JMP  __lcd_write_data

;OPTIMIZER ADDED SUBROUTINE, CALLED 2 TIMES, CODE SIZE REDUCTION:4 WORDS
SUBOPT_0x5:
	LDI  R31,0
	MOVW R26,R28
	ADIW R26,14
	CALL __LSLW2
	ADD  R26,R30
	ADC  R27,R31
	CALL __GETD1P
	RET

;OPTIMIZER ADDED SUBROUTINE, CALLED 2 TIMES, CODE SIZE REDUCTION:1 WORDS
SUBOPT_0x6:
	__GETD2S 10
	CALL __CDF1U
	RET

;OPTIMIZER ADDED SUBROUTINE, CALLED 6 TIMES, CODE SIZE REDUCTION:7 WORDS
SUBOPT_0x7:
	__GETD1S 10
	RET

;OPTIMIZER ADDED SUBROUTINE, CALLED 4 TIMES, CODE SIZE REDUCTION:3 WORDS
SUBOPT_0x8:
	__GETD2S 10
	RET

;OPTIMIZER ADDED SUBROUTINE, CALLED 2 TIMES, CODE SIZE REDUCTION:19 WORDS
SUBOPT_0x9:
	__POINTW1FN _0x0,8
	ST   -Y,R31
	ST   -Y,R30
	LDS  R30,_a
	LDS  R31,_a+1
	LDS  R22,_a+2
	LDS  R23,_a+3
	CALL __PUTPARD1
	RCALL SUBOPT_0x2
	CALL __PUTPARD1
	LDI  R24,8
	CALL _sprintf
	ADIW R28,12
	LDI  R26,LOW(_buffer)
	LDI  R27,HIGH(_buffer)
	RET

;OPTIMIZER ADDED SUBROUTINE, CALLED 3 TIMES, CODE SIZE REDUCTION:9 WORDS
SUBOPT_0xA:
	LDS  R30,_a
	LDS  R31,_a+1
	LDS  R22,_a+2
	LDS  R23,_a+3
	RET

;OPTIMIZER ADDED SUBROUTINE, CALLED 5 TIMES, CODE SIZE REDUCTION:21 WORDS
SUBOPT_0xB:
	LDS  R30,_b
	LDS  R31,_b+1
	LDS  R22,_b+2
	LDS  R23,_b+3
	RET

;OPTIMIZER ADDED SUBROUTINE, CALLED 6 TIMES, CODE SIZE REDUCTION:7 WORDS
SUBOPT_0xC:
	__GETD1S 4
	RET

;OPTIMIZER ADDED SUBROUTINE, CALLED 4 TIMES, CODE SIZE REDUCTION:15 WORDS
SUBOPT_0xD:
	STS  _ans,R30
	STS  _ans+1,R31
	STS  _ans+2,R22
	STS  _ans+3,R23
	RET

;OPTIMIZER ADDED SUBROUTINE, CALLED 2 TIMES, CODE SIZE REDUCTION:3 WORDS
SUBOPT_0xE:
	STS  _a,R30
	STS  _a+1,R31
	STS  _a+2,R22
	STS  _a+3,R23
	RET

;OPTIMIZER ADDED SUBROUTINE, CALLED 4 TIMES, CODE SIZE REDUCTION:21 WORDS
SUBOPT_0xF:
	CALL _input_digit
	STS  _b,R30
	STS  _b+1,R31
	STS  _b+2,R22
	STS  _b+3,R23
	RET

;OPTIMIZER ADDED SUBROUTINE, CALLED 3 TIMES, CODE SIZE REDUCTION:13 WORDS
SUBOPT_0x10:
	RCALL SUBOPT_0xB
	LDS  R26,_a
	LDS  R27,_a+1
	LDS  R24,_a+2
	LDS  R25,_a+3
	RET

;OPTIMIZER ADDED SUBROUTINE, CALLED 2 TIMES, CODE SIZE REDUCTION:3 WORDS
SUBOPT_0x11:
	LDS  R26,_a
	LDS  R27,_a+1
	LDS  R24,_a+2
	LDS  R25,_a+3
	RET

;OPTIMIZER ADDED SUBROUTINE, CALLED 2 TIMES, CODE SIZE REDUCTION:3 WORDS
SUBOPT_0x12:
	STS  _m,R30
	STS  _m+1,R31
	STS  _m+2,R22
	STS  _m+3,R23
	RET

;OPTIMIZER ADDED SUBROUTINE, CALLED 3 TIMES, CODE SIZE REDUCTION:1 WORDS
SUBOPT_0x13:
	CALL __lcd_write_data
	JMP  __lcd_ready

;OPTIMIZER ADDED SUBROUTINE, CALLED 3 TIMES, CODE SIZE REDUCTION:3 WORDS
SUBOPT_0x14:
	CALL __long_delay_G100
	LDI  R26,LOW(48)
	JMP  __lcd_init_write_G100

;OPTIMIZER ADDED SUBROUTINE, CALLED 3 TIMES, CODE SIZE REDUCTION:1 WORDS
SUBOPT_0x15:
	CALL __lcd_write_data
	JMP  __long_delay_G100

;OPTIMIZER ADDED SUBROUTINE, CALLED 3 TIMES, CODE SIZE REDUCTION:3 WORDS
SUBOPT_0x16:
	LD   R30,X+
	LD   R31,X+
	ADIW R30,1
	ST   -X,R31
	ST   -X,R30
	RET

;OPTIMIZER ADDED SUBROUTINE, CALLED 2 TIMES, CODE SIZE REDUCTION:2 WORDS
SUBOPT_0x17:
	ST   -Y,R27
	ST   -Y,R26
	SBIW R28,4
	LDI  R30,LOW(0)
	ST   Y,R30
	STD  Y+1,R30
	RET

;OPTIMIZER ADDED SUBROUTINE, CALLED 4 TIMES, CODE SIZE REDUCTION:33 WORDS
SUBOPT_0x18:
	__GETD2S 4
	__GETD1N 0x41200000
	CALL __MULF12
	__PUTD1S 4
	RET

;OPTIMIZER ADDED SUBROUTINE, CALLED 4 TIMES, CODE SIZE REDUCTION:15 WORDS
SUBOPT_0x19:
	RCALL SUBOPT_0xC
	__GETD2S 12
	CALL __CMPF12
	RET

;OPTIMIZER ADDED SUBROUTINE, CALLED 5 TIMES, CODE SIZE REDUCTION:5 WORDS
SUBOPT_0x1A:
	__GETD2S 12
	RET

;OPTIMIZER ADDED SUBROUTINE, CALLED 2 TIMES, CODE SIZE REDUCTION:6 WORDS
SUBOPT_0x1B:
	__GETD1N 0x3DCCCCCD
	CALL __MULF12
	__PUTD1S 12
	SUBI R19,-LOW(1)
	RET

;OPTIMIZER ADDED SUBROUTINE, CALLED 3 TIMES, CODE SIZE REDUCTION:5 WORDS
SUBOPT_0x1C:
	__GETD1N 0x41200000
	CALL __MULF12
	RET

;OPTIMIZER ADDED SUBROUTINE, CALLED 3 TIMES, CODE SIZE REDUCTION:1 WORDS
SUBOPT_0x1D:
	__PUTD1S 12
	RET

;OPTIMIZER ADDED SUBROUTINE, CALLED 3 TIMES, CODE SIZE REDUCTION:5 WORDS
SUBOPT_0x1E:
	__GETD2N 0x3F000000
	CALL __ADDF12
	RET

;OPTIMIZER ADDED SUBROUTINE, CALLED 3 TIMES, CODE SIZE REDUCTION:5 WORDS
SUBOPT_0x1F:
	__GETD1N 0x3DCCCCCD
	CALL __MULF12
	RET

;OPTIMIZER ADDED SUBROUTINE, CALLED 2 TIMES, CODE SIZE REDUCTION:1 WORDS
SUBOPT_0x20:
	LDD  R26,Y+8
	LDD  R27,Y+8+1
	ADIW R26,1
	STD  Y+8,R26
	STD  Y+8+1,R27
	SBIW R26,1
	RET

;OPTIMIZER ADDED SUBROUTINE, CALLED 3 TIMES, CODE SIZE REDUCTION:1 WORDS
SUBOPT_0x21:
	MOV  R30,R16
	SUBI R30,-LOW(48)
	ST   X,R30
	MOV  R30,R16
	RET

;OPTIMIZER ADDED SUBROUTINE, CALLED 3 TIMES, CODE SIZE REDUCTION:1 WORDS
SUBOPT_0x22:
	CALL __SWAPD12
	CALL __SUBF12
	RET

;OPTIMIZER ADDED SUBROUTINE, CALLED 4 TIMES, CODE SIZE REDUCTION:6 WORDS
SUBOPT_0x23:
	LDD  R30,Y+8
	LDD  R31,Y+8+1
	ADIW R30,1
	STD  Y+8,R30
	STD  Y+8+1,R31
	RET

;OPTIMIZER ADDED SUBROUTINE, CALLED 5 TIMES, CODE SIZE REDUCTION:13 WORDS
SUBOPT_0x24:
	ST   -Y,R18
	LDD  R26,Y+7
	LDD  R27,Y+7+1
	LDD  R30,Y+9
	LDD  R31,Y+9+1
	ICALL
	RET

;OPTIMIZER ADDED SUBROUTINE, CALLED 8 TIMES, CODE SIZE REDUCTION:25 WORDS
SUBOPT_0x25:
	__GETW1SX 90
	RET

;OPTIMIZER ADDED SUBROUTINE, CALLED 7 TIMES, CODE SIZE REDUCTION:21 WORDS
SUBOPT_0x26:
	SBIW R30,4
	__PUTW1SX 90
	RET

;OPTIMIZER ADDED SUBROUTINE, CALLED 4 TIMES, CODE SIZE REDUCTION:6 WORDS
SUBOPT_0x27:
	LDD  R26,Y+7
	LDD  R27,Y+7+1
	LDD  R30,Y+9
	LDD  R31,Y+9+1
	ICALL
	RET

;OPTIMIZER ADDED SUBROUTINE, CALLED 6 TIMES, CODE SIZE REDUCTION:17 WORDS
SUBOPT_0x28:
	__GETW2SX 90
	RET

;OPTIMIZER ADDED SUBROUTINE, CALLED 6 TIMES, CODE SIZE REDUCTION:7 WORDS
SUBOPT_0x29:
	RCALL SUBOPT_0x25
	RJMP SUBOPT_0x26

;OPTIMIZER ADDED SUBROUTINE, CALLED 2 TIMES, CODE SIZE REDUCTION:2 WORDS
SUBOPT_0x2A:
	STD  Y+14,R30
	STD  Y+14+1,R31
	LDD  R26,Y+14
	LDD  R27,Y+14+1
	CALL _strlen
	MOV  R17,R30
	RET

;OPTIMIZER ADDED SUBROUTINE, CALLED 4 TIMES, CODE SIZE REDUCTION:6 WORDS
SUBOPT_0x2B:
	RCALL SUBOPT_0x28
	ADIW R26,4
	CALL __GETW1P
	RET

;OPTIMIZER ADDED SUBROUTINE, CALLED 5 TIMES, CODE SIZE REDUCTION:5 WORDS
SUBOPT_0x2C:
	__PUTD1S 16
	RET

;OPTIMIZER ADDED SUBROUTINE, CALLED 2 TIMES, CODE SIZE REDUCTION:12 WORDS
SUBOPT_0x2D:
	ANDI R16,LOW(251)
	LDD  R30,Y+21
	ST   -Y,R30
	__GETW2SX 87
	__GETW1SX 89
	ICALL
	CPI  R21,0
	RET

;OPTIMIZER ADDED SUBROUTINE, CALLED 2 TIMES, CODE SIZE REDUCTION:1 WORDS
SUBOPT_0x2E:
	__GETD1S 16
	RJMP SUBOPT_0x8

;OPTIMIZER ADDED SUBROUTINE, CALLED 2 TIMES, CODE SIZE REDUCTION:1 WORDS
SUBOPT_0x2F:
	MOVW R26,R28
	ADIW R26,12
	CALL __ADDW2R15
	CALL __GETW1P
	RET

;OPTIMIZER ADDED SUBROUTINE, CALLED 3 TIMES, CODE SIZE REDUCTION:1 WORDS
SUBOPT_0x30:
	LDD  R30,Y+6
	LDD  R31,Y+6+1
	ST   -Y,R31
	ST   -Y,R30
	RET

;OPTIMIZER ADDED SUBROUTINE, CALLED 5 TIMES, CODE SIZE REDUCTION:5 WORDS
SUBOPT_0x31:
	__PUTD1S 9
	RET

;OPTIMIZER ADDED SUBROUTINE, CALLED 5 TIMES, CODE SIZE REDUCTION:13 WORDS
SUBOPT_0x32:
	LDD  R26,Y+6
	LDD  R27,Y+6+1
	ADIW R26,1
	STD  Y+6,R26
	STD  Y+6+1,R27
	SBIW R26,1
	RET

;OPTIMIZER ADDED SUBROUTINE, CALLED 4 TIMES, CODE SIZE REDUCTION:3 WORDS
SUBOPT_0x33:
	__GETD2S 2
	RET

;OPTIMIZER ADDED SUBROUTINE, CALLED 4 TIMES, CODE SIZE REDUCTION:3 WORDS
SUBOPT_0x34:
	__PUTD1S 2
	RET

;OPTIMIZER ADDED SUBROUTINE, CALLED 3 TIMES, CODE SIZE REDUCTION:9 WORDS
SUBOPT_0x35:
	__GETD1S 2
	__GETD2S 9
	RET

;OPTIMIZER ADDED SUBROUTINE, CALLED 3 TIMES, CODE SIZE REDUCTION:1 WORDS
SUBOPT_0x36:
	__GETD2S 9
	RET


	.CSEG
_delay_ms:
	adiw r26,0
	breq __delay_ms1
__delay_ms0:
	__DELAY_USW 0x7D0
	wdr
	sbiw r26,1
	brne __delay_ms0
__delay_ms1:
	ret

__ANEGF1:
	SBIW R30,0
	SBCI R22,0
	SBCI R23,0
	BREQ __ANEGF10
	SUBI R23,0x80
__ANEGF10:
	RET

__ROUND_REPACK:
	TST  R21
	BRPL __REPACK
	CPI  R21,0x80
	BRNE __ROUND_REPACK0
	SBRS R30,0
	RJMP __REPACK
__ROUND_REPACK0:
	ADIW R30,1
	ADC  R22,R25
	ADC  R23,R25
	BRVS __REPACK1

__REPACK:
	LDI  R21,0x80
	EOR  R21,R23
	BRNE __REPACK0
	PUSH R21
	RJMP __ZERORES
__REPACK0:
	CPI  R21,0xFF
	BREQ __REPACK1
	LSL  R22
	LSL  R0
	ROR  R21
	ROR  R22
	MOV  R23,R21
	RET
__REPACK1:
	PUSH R21
	TST  R0
	BRMI __REPACK2
	RJMP __MAXRES
__REPACK2:
	RJMP __MINRES

__UNPACK:
	LDI  R21,0x80
	MOV  R1,R25
	AND  R1,R21
	LSL  R24
	ROL  R25
	EOR  R25,R21
	LSL  R21
	ROR  R24

__UNPACK1:
	LDI  R21,0x80
	MOV  R0,R23
	AND  R0,R21
	LSL  R22
	ROL  R23
	EOR  R23,R21
	LSL  R21
	ROR  R22
	RET

__CFD1U:
	SET
	RJMP __CFD1U0
__CFD1:
	CLT
__CFD1U0:
	PUSH R21
	RCALL __UNPACK1
	CPI  R23,0x80
	BRLO __CFD10
	CPI  R23,0xFF
	BRCC __CFD10
	RJMP __ZERORES
__CFD10:
	LDI  R21,22
	SUB  R21,R23
	BRPL __CFD11
	NEG  R21
	CPI  R21,8
	BRTC __CFD19
	CPI  R21,9
__CFD19:
	BRLO __CFD17
	SER  R30
	SER  R31
	SER  R22
	LDI  R23,0x7F
	BLD  R23,7
	RJMP __CFD15
__CFD17:
	CLR  R23
	TST  R21
	BREQ __CFD15
__CFD18:
	LSL  R30
	ROL  R31
	ROL  R22
	ROL  R23
	DEC  R21
	BRNE __CFD18
	RJMP __CFD15
__CFD11:
	CLR  R23
__CFD12:
	CPI  R21,8
	BRLO __CFD13
	MOV  R30,R31
	MOV  R31,R22
	MOV  R22,R23
	SUBI R21,8
	RJMP __CFD12
__CFD13:
	TST  R21
	BREQ __CFD15
__CFD14:
	LSR  R23
	ROR  R22
	ROR  R31
	ROR  R30
	DEC  R21
	BRNE __CFD14
__CFD15:
	TST  R0
	BRPL __CFD16
	RCALL __ANEGD1
__CFD16:
	POP  R21
	RET

__CDF1U:
	SET
	RJMP __CDF1U0
__CDF1:
	CLT
__CDF1U0:
	SBIW R30,0
	SBCI R22,0
	SBCI R23,0
	BREQ __CDF10
	CLR  R0
	BRTS __CDF11
	TST  R23
	BRPL __CDF11
	COM  R0
	RCALL __ANEGD1
__CDF11:
	MOV  R1,R23
	LDI  R23,30
	TST  R1
__CDF12:
	BRMI __CDF13
	DEC  R23
	LSL  R30
	ROL  R31
	ROL  R22
	ROL  R1
	RJMP __CDF12
__CDF13:
	MOV  R30,R31
	MOV  R31,R22
	MOV  R22,R1
	PUSH R21
	RCALL __REPACK
	POP  R21
__CDF10:
	RET

__SWAPACC:
	PUSH R20
	MOVW R20,R30
	MOVW R30,R26
	MOVW R26,R20
	MOVW R20,R22
	MOVW R22,R24
	MOVW R24,R20
	MOV  R20,R0
	MOV  R0,R1
	MOV  R1,R20
	POP  R20
	RET

__UADD12:
	ADD  R30,R26
	ADC  R31,R27
	ADC  R22,R24
	RET

__NEGMAN1:
	COM  R30
	COM  R31
	COM  R22
	SUBI R30,-1
	SBCI R31,-1
	SBCI R22,-1
	RET

__SUBF12:
	PUSH R21
	RCALL __UNPACK
	CPI  R25,0x80
	BREQ __ADDF129
	LDI  R21,0x80
	EOR  R1,R21

	RJMP __ADDF120

__ADDF12:
	PUSH R21
	RCALL __UNPACK
	CPI  R25,0x80
	BREQ __ADDF129

__ADDF120:
	CPI  R23,0x80
	BREQ __ADDF128
__ADDF121:
	MOV  R21,R23
	SUB  R21,R25
	BRVS __ADDF1211
	BRPL __ADDF122
	RCALL __SWAPACC
	RJMP __ADDF121
__ADDF122:
	CPI  R21,24
	BRLO __ADDF123
	CLR  R26
	CLR  R27
	CLR  R24
__ADDF123:
	CPI  R21,8
	BRLO __ADDF124
	MOV  R26,R27
	MOV  R27,R24
	CLR  R24
	SUBI R21,8
	RJMP __ADDF123
__ADDF124:
	TST  R21
	BREQ __ADDF126
__ADDF125:
	LSR  R24
	ROR  R27
	ROR  R26
	DEC  R21
	BRNE __ADDF125
__ADDF126:
	MOV  R21,R0
	EOR  R21,R1
	BRMI __ADDF127
	RCALL __UADD12
	BRCC __ADDF129
	ROR  R22
	ROR  R31
	ROR  R30
	INC  R23
	BRVC __ADDF129
	RJMP __MAXRES
__ADDF128:
	RCALL __SWAPACC
__ADDF129:
	RCALL __REPACK
	POP  R21
	RET
__ADDF1211:
	BRCC __ADDF128
	RJMP __ADDF129
__ADDF127:
	SUB  R30,R26
	SBC  R31,R27
	SBC  R22,R24
	BREQ __ZERORES
	BRCC __ADDF1210
	COM  R0
	RCALL __NEGMAN1
__ADDF1210:
	TST  R22
	BRMI __ADDF129
	LSL  R30
	ROL  R31
	ROL  R22
	DEC  R23
	BRVC __ADDF1210

__ZERORES:
	CLR  R30
	CLR  R31
	CLR  R22
	CLR  R23
	POP  R21
	RET

__MINRES:
	SER  R30
	SER  R31
	LDI  R22,0x7F
	SER  R23
	POP  R21
	RET

__MAXRES:
	SER  R30
	SER  R31
	LDI  R22,0x7F
	LDI  R23,0x7F
	POP  R21
	RET

__MULF12:
	PUSH R21
	RCALL __UNPACK
	CPI  R23,0x80
	BREQ __ZERORES
	CPI  R25,0x80
	BREQ __ZERORES
	EOR  R0,R1
	SEC
	ADC  R23,R25
	BRVC __MULF124
	BRLT __ZERORES
__MULF125:
	TST  R0
	BRMI __MINRES
	RJMP __MAXRES
__MULF124:
	PUSH R0
	PUSH R17
	PUSH R18
	PUSH R19
	PUSH R20
	CLR  R17
	CLR  R18
	CLR  R25
	MUL  R22,R24
	MOVW R20,R0
	MUL  R24,R31
	MOV  R19,R0
	ADD  R20,R1
	ADC  R21,R25
	MUL  R22,R27
	ADD  R19,R0
	ADC  R20,R1
	ADC  R21,R25
	MUL  R24,R30
	RCALL __MULF126
	MUL  R27,R31
	RCALL __MULF126
	MUL  R22,R26
	RCALL __MULF126
	MUL  R27,R30
	RCALL __MULF127
	MUL  R26,R31
	RCALL __MULF127
	MUL  R26,R30
	ADD  R17,R1
	ADC  R18,R25
	ADC  R19,R25
	ADC  R20,R25
	ADC  R21,R25
	MOV  R30,R19
	MOV  R31,R20
	MOV  R22,R21
	MOV  R21,R18
	POP  R20
	POP  R19
	POP  R18
	POP  R17
	POP  R0
	TST  R22
	BRMI __MULF122
	LSL  R21
	ROL  R30
	ROL  R31
	ROL  R22
	RJMP __MULF123
__MULF122:
	INC  R23
	BRVS __MULF125
__MULF123:
	RCALL __ROUND_REPACK
	POP  R21
	RET

__MULF127:
	ADD  R17,R0
	ADC  R18,R1
	ADC  R19,R25
	RJMP __MULF128
__MULF126:
	ADD  R18,R0
	ADC  R19,R1
__MULF128:
	ADC  R20,R25
	ADC  R21,R25
	RET

__DIVF21:
	PUSH R21
	RCALL __UNPACK
	CPI  R23,0x80
	BRNE __DIVF210
	TST  R1
__DIVF211:
	BRPL __DIVF219
	RJMP __MINRES
__DIVF219:
	RJMP __MAXRES
__DIVF210:
	CPI  R25,0x80
	BRNE __DIVF218
__DIVF217:
	RJMP __ZERORES
__DIVF218:
	EOR  R0,R1
	SEC
	SBC  R25,R23
	BRVC __DIVF216
	BRLT __DIVF217
	TST  R0
	RJMP __DIVF211
__DIVF216:
	MOV  R23,R25
	PUSH R17
	PUSH R18
	PUSH R19
	PUSH R20
	CLR  R1
	CLR  R17
	CLR  R18
	CLR  R19
	CLR  R20
	CLR  R21
	LDI  R25,32
__DIVF212:
	CP   R26,R30
	CPC  R27,R31
	CPC  R24,R22
	CPC  R20,R17
	BRLO __DIVF213
	SUB  R26,R30
	SBC  R27,R31
	SBC  R24,R22
	SBC  R20,R17
	SEC
	RJMP __DIVF214
__DIVF213:
	CLC
__DIVF214:
	ROL  R21
	ROL  R18
	ROL  R19
	ROL  R1
	ROL  R26
	ROL  R27
	ROL  R24
	ROL  R20
	DEC  R25
	BRNE __DIVF212
	MOVW R30,R18
	MOV  R22,R1
	POP  R20
	POP  R19
	POP  R18
	POP  R17
	TST  R22
	BRMI __DIVF215
	LSL  R21
	ROL  R30
	ROL  R31
	ROL  R22
	DEC  R23
	BRVS __DIVF217
__DIVF215:
	RCALL __ROUND_REPACK
	POP  R21
	RET

__CMPF12:
	TST  R25
	BRMI __CMPF120
	TST  R23
	BRMI __CMPF121
	CP   R25,R23
	BRLO __CMPF122
	BRNE __CMPF121
	CP   R26,R30
	CPC  R27,R31
	CPC  R24,R22
	BRLO __CMPF122
	BREQ __CMPF123
__CMPF121:
	CLZ
	CLC
	RET
__CMPF122:
	CLZ
	SEC
	RET
__CMPF123:
	SEZ
	CLC
	RET
__CMPF120:
	TST  R23
	BRPL __CMPF122
	CP   R25,R23
	BRLO __CMPF121
	BRNE __CMPF122
	CP   R30,R26
	CPC  R31,R27
	CPC  R22,R24
	BRLO __CMPF122
	BREQ __CMPF123
	RJMP __CMPF121

_sqrt:
	rcall __PUTPARD2
	sbiw r28,4
	push r21
	ldd  r25,y+7
	tst  r25
	brne __sqrt0
	adiw r28,8
	rjmp __zerores
__sqrt0:
	brpl __sqrt1
	adiw r28,8
	rjmp __maxres
__sqrt1:
	push r20
	ldi  r20,66
	ldd  r24,y+6
	ldd  r27,y+5
	ldd  r26,y+4
__sqrt2:
	st   y,r24
	std  y+1,r25
	std  y+2,r26
	std  y+3,r27
	movw r30,r26
	movw r22,r24
	ldd  r26,y+4
	ldd  r27,y+5
	ldd  r24,y+6
	ldd  r25,y+7
	rcall __divf21
	ld   r24,y
	ldd  r25,y+1
	ldd  r26,y+2
	ldd  r27,y+3
	rcall __addf12
	rcall __unpack1
	dec  r23
	rcall __repack
	ld   r24,y
	ldd  r25,y+1
	ldd  r26,y+2
	ldd  r27,y+3
	eor  r26,r30
	andi r26,0xf8
	brne __sqrt4
	cp   r27,r31
	cpc  r24,r22
	cpc  r25,r23
	breq __sqrt3
__sqrt4:
	dec  r20
	breq __sqrt3
	movw r26,r30
	movw r24,r22
	rjmp __sqrt2
__sqrt3:
	pop  r20
	pop  r21
	adiw r28,8
	ret

__ADDW2R15:
	CLR  R0
	ADD  R26,R15
	ADC  R27,R0
	RET

__ANEGD1:
	COM  R31
	COM  R22
	COM  R23
	NEG  R30
	SBCI R31,-1
	SBCI R22,-1
	SBCI R23,-1
	RET

__LSLW2:
	LSL  R30
	ROL  R31
	LSL  R30
	ROL  R31
	RET

__CBD1:
	MOV  R31,R30
	ADD  R31,R31
	SBC  R31,R31
	MOV  R22,R31
	MOV  R23,R31
	RET

__CWD1:
	MOV  R22,R31
	ADD  R22,R22
	SBC  R22,R22
	MOV  R23,R22
	RET

__CWD2:
	MOV  R24,R27
	ADD  R24,R24
	SBC  R24,R24
	MOV  R25,R24
	RET

__MULD12U:
	MUL  R23,R26
	MOV  R23,R0
	MUL  R22,R27
	ADD  R23,R0
	MUL  R31,R24
	ADD  R23,R0
	MUL  R30,R25
	ADD  R23,R0
	MUL  R22,R26
	MOV  R22,R0
	ADD  R23,R1
	MUL  R31,R27
	ADD  R22,R0
	ADC  R23,R1
	MUL  R30,R24
	ADD  R22,R0
	ADC  R23,R1
	CLR  R24
	MUL  R31,R26
	MOV  R31,R0
	ADD  R22,R1
	ADC  R23,R24
	MUL  R30,R27
	ADD  R31,R0
	ADC  R22,R1
	ADC  R23,R24
	MUL  R30,R26
	MOV  R30,R0
	ADD  R31,R1
	ADC  R22,R24
	ADC  R23,R24
	RET

__DIVB21U:
	CLR  R0
	LDI  R25,8
__DIVB21U1:
	LSL  R26
	ROL  R0
	SUB  R0,R30
	BRCC __DIVB21U2
	ADD  R0,R30
	RJMP __DIVB21U3
__DIVB21U2:
	SBR  R26,1
__DIVB21U3:
	DEC  R25
	BRNE __DIVB21U1
	MOV  R30,R26
	MOV  R26,R0
	RET

__DIVB21:
	RCALL __CHKSIGNB
	RCALL __DIVB21U
	BRTC __DIVB211
	NEG  R30
__DIVB211:
	RET

__DIVD21U:
	PUSH R19
	PUSH R20
	PUSH R21
	CLR  R0
	CLR  R1
	CLR  R20
	CLR  R21
	LDI  R19,32
__DIVD21U1:
	LSL  R26
	ROL  R27
	ROL  R24
	ROL  R25
	ROL  R0
	ROL  R1
	ROL  R20
	ROL  R21
	SUB  R0,R30
	SBC  R1,R31
	SBC  R20,R22
	SBC  R21,R23
	BRCC __DIVD21U2
	ADD  R0,R30
	ADC  R1,R31
	ADC  R20,R22
	ADC  R21,R23
	RJMP __DIVD21U3
__DIVD21U2:
	SBR  R26,1
__DIVD21U3:
	DEC  R19
	BRNE __DIVD21U1
	MOVW R30,R26
	MOVW R22,R24
	MOVW R26,R0
	MOVW R24,R20
	POP  R21
	POP  R20
	POP  R19
	RET

__MODB21:
	CLT
	SBRS R26,7
	RJMP __MODB211
	NEG  R26
	SET
__MODB211:
	SBRC R30,7
	NEG  R30
	RCALL __DIVB21U
	MOV  R30,R26
	BRTC __MODB212
	NEG  R30
__MODB212:
	RET

__MODD21U:
	RCALL __DIVD21U
	MOVW R30,R26
	MOVW R22,R24
	RET

__CHKSIGNB:
	CLT
	SBRS R30,7
	RJMP __CHKSB1
	NEG  R30
	SET
__CHKSB1:
	SBRS R26,7
	RJMP __CHKSB2
	NEG  R26
	BLD  R0,0
	INC  R0
	BST  R0,0
__CHKSB2:
	RET

__GETW1P:
	LD   R30,X+
	LD   R31,X
	SBIW R26,1
	RET

__GETD1P:
	LD   R30,X+
	LD   R31,X+
	LD   R22,X+
	LD   R23,X
	SBIW R26,3
	RET

__PUTDP1:
	ST   X+,R30
	ST   X+,R31
	ST   X+,R22
	ST   X,R23
	RET

__GETD1S0:
	LD   R30,Y
	LDD  R31,Y+1
	LDD  R22,Y+2
	LDD  R23,Y+3
	RET

__GETD2S0:
	LD   R26,Y
	LDD  R27,Y+1
	LDD  R24,Y+2
	LDD  R25,Y+3
	RET

__PUTD1S0:
	ST   Y,R30
	STD  Y+1,R31
	STD  Y+2,R22
	STD  Y+3,R23
	RET

__PUTPARD1:
	ST   -Y,R23
	ST   -Y,R22
	ST   -Y,R31
	ST   -Y,R30
	RET

__PUTPARD2:
	ST   -Y,R25
	ST   -Y,R24
	ST   -Y,R27
	ST   -Y,R26
	RET

__SWAPD12:
	MOV  R1,R24
	MOV  R24,R22
	MOV  R22,R1
	MOV  R1,R25
	MOV  R25,R23
	MOV  R23,R1

__SWAPW12:
	MOV  R1,R27
	MOV  R27,R31
	MOV  R31,R1

__SWAPB12:
	MOV  R1,R26
	MOV  R26,R30
	MOV  R30,R1
	RET

__CPD10:
	SBIW R30,0
	SBCI R22,0
	SBCI R23,0
	RET

__SAVELOCR6:
	ST   -Y,R21
__SAVELOCR5:
	ST   -Y,R20
__SAVELOCR4:
	ST   -Y,R19
__SAVELOCR3:
	ST   -Y,R18
__SAVELOCR2:
	ST   -Y,R17
	ST   -Y,R16
	RET

__LOADLOCR6:
	LDD  R21,Y+5
__LOADLOCR5:
	LDD  R20,Y+4
__LOADLOCR4:
	LDD  R19,Y+3
__LOADLOCR3:
	LDD  R18,Y+2
__LOADLOCR2:
	LDD  R17,Y+1
	LD   R16,Y
	RET

__INITLOCB:
__INITLOCW:
	ADD  R26,R28
	ADC  R27,R29
__INITLOC0:
	LPM  R0,Z+
	ST   X+,R0
	DEC  R24
	BRNE __INITLOC0
	RET

;END OF CODE MARKER
__END_OF_CODE:
